LX51 LINKER/LOCATER V4.66.97.0                                                          10/05/2022  15:23:47  PAGE 1


LX51 LINKER/LOCATER V4.66.97.0, INVOKED BY:
C:\KEIL_V5\C51\BIN\LX51.EXE .\Output\GPIO_LIB.obj, .\Output\common.obj, .\Output\delay.obj, .\Output\gpio.obj TO .\Outpu
>> t\GPIO_Input_Output PRINT (.\LST\GPIO_Input_Output.map) DISABLEWARNING (16) REMOVEUNUSED


CPU MODE:     8051 MODE
MEMORY MODEL: SMALL


INPUT MODULES INCLUDED:
  .\Output\GPIO_LIB.obj (GPIO_LIB)
         COMMENT TYPE 0: C51 V9.60.0.0
  .\Output\common.obj (COMMON)
         COMMENT TYPE 0: C51 V9.60.0.0
  .\Output\delay.obj (DELAY)
         COMMENT TYPE 0: C51 V9.60.0.0
  .\Output\gpio.obj (GPIO)
         COMMENT TYPE 0: C51 V9.60.0.0
  C:\KEIL_V5\C51\LIB\C51S.LIB (?C_STARTUP)
         COMMENT TYPE 1: A51 / ASM51 Assembler
  C:\KEIL_V5\C51\LIB\C51S.LIB (?C?LMUL)
         COMMENT TYPE 1: A51 / ASM51 Assembler
  C:\KEIL_V5\C51\LIB\C51S.LIB (?C?ULDIV)
         COMMENT TYPE 1: A51 / ASM51 Assembler
  C:\KEIL_V5\C51\LIB\C51S.LIB (?C?ULSHR)
         COMMENT TYPE 1: A51 / ASM51 Assembler
  C:\KEIL_V5\C51\LIB\C51S.LIB (?C?ICASE)
         COMMENT TYPE 1: A51 / ASM51 Assembler


ACTIVE MEMORY CLASSES OF MODULE:  .\Output\GPIO_Input_Output (GPIO_LIB)

BASE        START       END         USED      MEMORY CLASS
==========================================================
C:000000H   C:000000H   C:00FFFFH   0003E8H   CODE
I:000000H   I:000000H   I:00007FH   000018H   DATA
I:000020H.0 I:000020H.0 I:00002FH.7 000000H.1 BIT
I:000000H   I:000000H   I:0000FFH   000001H   IDATA


MEMORY MAP OF MODULE:  .\Output\GPIO_Input_Output (GPIO_LIB)


START     STOP      LENGTH    ALIGN  RELOC    MEMORY CLASS   SEGMENT NAME
=========================================================================

* * * * * * * * * * *   D A T A   M E M O R Y   * * * * * * * * * * * * *
000000H   000007H   000008H   ---    AT..     DATA           "REG BANK 0"
000008H   000014H   00000DH   BYTE   UNIT     DATA           _DATA_GROUP_
000015H   000017H   000003H   BYTE   UNIT     DATA           ?DT?COMMON
000018H.0 00001FH.7 000008H.0 ---    ---      **GAP**
000020H.0 000020H.0 000000H.1 BIT    UNIT     BIT            ?BI?COMMON
000020H.1 000020H   000000H.7 ---    ---      **GAP**
000021H   000021H   000001H   BYTE   UNIT     IDATA          ?STACK

* * * * * * * * * * *   C O D E   M E M O R Y   * * * * * * * * * * * * *
000000H   000002H   000003H   ---    OFFS..   CODE           ?CO??C_STARTUP?0
000003H   00015FH   00015DH   BYTE   UNIT     CODE           ?C?LIB_CODE
000160H   00027FH   000120H   BYTE   UNIT     CODE           ?PR?_TIMER2_DELAY?DELAY
000280H   00034DH   0000CEH   BYTE   UNIT     CODE           ?PR?_GPIO_SETMODE?GPIO
00034EH   0003DBH   00008EH   BYTE   UNIT     CODE           ?PR?MAIN?GPIO_LIB
0003DCH   0003E7H   00000CH   BYTE   UNIT     CODE           ?C_C51STARTUP

* * * * * * * * *   R E M O V E D     S E G M E N T S   * * * * * * * *
   *DEL*:           00000DH   BYTE   UNIT     CODE           ?PR?_READ_APROM_BYTE?COMMON
   *DEL*:           000006H   BYTE   UNIT     CODE           ?PR?_GLOBAL_INTERRUPT?COMMON
LX51 LINKER/LOCATER V4.66.97.0                                                        10/05/2022  15:23:47  PAGE 2


   *DEL*:           0000C0H   BYTE   UNIT     CODE           ?PR?_TIMER0_DELAY?DELAY
   *DEL*:           000009H   BYTE   UNIT     DATA           ?DT?_TIMER0_DELAY?DELAY
   *DEL*:           0000BBH   BYTE   UNIT     CODE           ?PR?_TIMER1_DELAY?DELAY
   *DEL*:           000009H   BYTE   UNIT     DATA           ?DT?_TIMER1_DELAY?DELAY
   *DEL*:           000117H   BYTE   UNIT     CODE           ?PR?_TIMER3_DELAY?DELAY
   *DEL*:           00000CH   BYTE   UNIT     DATA           ?DT?_TIMER3_DELAY?DELAY
   *DEL*:           000024H   BYTE   UNIT     CODE           ?PR?_TIMER_INTERRUPT_ENABLE?DELAY
   *DEL*:           000090H   BYTE   UNIT     CODE           ?PR?_GPIO_PULL_ENABLE?GPIO
   *DEL*:           0000A1H   BYTE   UNIT     CODE           ?PR?_GPIO_PULL_DISABLE?GPIO
   *DEL*:           0000ABH   BYTE   UNIT     CODE           ?PR?_GPIO_SCHMITTTRIGGER?GPIO
   *DEL*:           000078H   BYTE   UNIT     CODE           ?PR?_GPIO_SLEWRATE?GPIO



OVERLAY MAP OF MODULE:   .\Output\GPIO_Input_Output (GPIO_LIB)


FUNCTION/MODULE                     BIT_GROUP   DATA_GROUP 
--> CALLED FUNCTION/MODULE         START  STOP  START  STOP
===========================================================
?C_C51STARTUP                      ----- -----  ----- -----
  +--> MAIN/GPIO_LIB

MAIN/GPIO_LIB                      ----- -----  ----- -----
  +--> _GPIO_SETMODE/GPIO
  +--> _TIMER2_DELAY/DELAY

_GPIO_SETMODE/GPIO                 ----- -----  0008H 0008H

_TIMER2_DELAY/DELAY                ----- -----  0008H 0014H



PUBLIC SYMBOLS OF MODULE:  .\Output\GPIO_Input_Output (GPIO_LIB)


      VALUE       CLASS    TYPE      PUBLIC SYMBOL NAME
      =================================================
*DEL*:00000000H   DATA     BYTE      ?_Timer0_Delay?BYTE
*DEL*:00000000H   DATA     BYTE      ?_Timer1_Delay?BYTE
      00000008H   DATA     BYTE      ?_Timer2_Delay?BYTE
*DEL*:00000000H   DATA     BYTE      ?_Timer3_Delay?BYTE
      00000000H   NUMBER   ---       ?C?CODESEG
      01000133H   CODE     ---       ?C?ICASE
      01000003H   CODE     ---       ?C?LMUL
      0100008EH   CODE     ---       ?C?ULDIV
      01000120H   CODE     ---       ?C?ULSHR
      00000000H   NUMBER   ---       ?C?XDATASEG
      0100034EH   CODE     ---       ?C_START
      01000000H   CODE     ---       ?C_STARTUP
*DEL*:00000000H   CODE     ---       _Global_Interrupt
*DEL*:00000000H   CODE     ---       _GPIO_Pull_Disable
*DEL*:00000000H   CODE     ---       _GPIO_Pull_Enable
*DEL*:00000000H   CODE     ---       _GPIO_SchmittTrigger
      01000280H   CODE     ---       _GPIO_SetMode
*DEL*:00000000H   CODE     ---       _GPIO_SlewRate
*DEL*:00000000H   CODE     ---       _Read_APROM_BYTE
*DEL*:00000000H   CODE     ---       _Timer0_Delay
*DEL*:00000000H   CODE     ---       _Timer1_Delay
      01000160H   CODE     ---       _Timer2_Delay
*DEL*:00000000H   CODE     ---       _Timer3_Delay
*DEL*:00000000H   CODE     ---       _Timer_Interrupt_Enable
*SFR* 000000C0H.2 DATA     BIT       AA0
*SFR* 000000E8H.2 DATA     BIT       AA1
*SFR* 000000D0H.6 DATA     BIT       AC
LX51 LINKER/LOCATER V4.66.97.0                                                        10/05/2022  15:23:47  PAGE 3


*SFR* 000000E0H   DATA     BYTE      ACC
*SFR* 000000D2H   DATA     BYTE      ACMPCR0
*SFR* 000000D3H   DATA     BYTE      ACMPCR1
*SFR* 000000ABH   DATA     BYTE      ACMPCR2
*SFR* 000000D4H   DATA     BYTE      ACMPSR
*SFR* 000000D5H   DATA     BYTE      ACMPVREF
*SFR* 000000E4H   DATA     BYTE      ADCBAH
*SFR* 000000CBH   DATA     BYTE      ADCBAL
*SFR* 000000E5H   DATA     BYTE      ADCCAL
*SFR* 000000E6H   DATA     BYTE      ADCCN
*SFR* 000000A1H   DATA     BYTE      ADCCON0
*SFR* 000000E1H   DATA     BYTE      ADCCON1
*SFR* 000000E2H   DATA     BYTE      ADCCON2
*SFR* 000000E3H   DATA     BYTE      ADCDLY
*SFR* 000000CFH   DATA     BYTE      ADCMPH
*SFR* 000000CEH   DATA     BYTE      ADCMPL
*SFR* 000000C3H   DATA     BYTE      ADCRH
*SFR* 000000C2H   DATA     BYTE      ADCRL
*SFR* 000000E5H   DATA     BYTE      ADCSN
*SFR* 000000E7H   DATA     BYTE      ADCSR
*SFR* 000000A0H.5 DATA     BIT       AIN0
*SFR* 000000A0H.4 DATA     BIT       AIN1
*SFR* 000000A0H.3 DATA     BIT       AIN2
*SFR* 000000A0H.2 DATA     BIT       AIN3
*SFR* 000000A0H.1 DATA     BIT       AIN4
*SFR* 000000A0H.0 DATA     BIT       AIN5
*SFR* 000000B0H.1 DATA     BIT       AIN6
*SFR* 000000B0H.2 DATA     BIT       AIN7
*SFR* 000000CEH   DATA     BYTE      AINDIDS0
*SFR* 000000CEH   DATA     BYTE      AINDIDS1
*SFR* 000000A2H   DATA     BYTE      AUXR0
*SFR* 000000C9H   DATA     BYTE      AUXR1
*SFR* 000000CFH   DATA     BYTE      AUXR3
*SFR* 000000F0H   DATA     BYTE      B
      00000020H.0 BIT      BIT       BIT_TMP
*SFR* 000000A3H   DATA     BYTE      BODCON0
*SFR* 000000ABH   DATA     BYTE      BODCON1
*SFR* 000000E4H   DATA     BYTE      BRCTRIM
      00000015H   DATA     BYTE      BYTE_TMP
*SFR* 000000E5H   DATA     BYTE      C0H
*SFR* 000000E4H   DATA     BYTE      C0L
*SFR* 000000E7H   DATA     BYTE      C1H
*SFR* 000000E6H   DATA     BYTE      C1L
*SFR* 000000EEH   DATA     BYTE      C2H
*SFR* 000000EDH   DATA     BYTE      C2L
*SFR* 000000E1H   DATA     BYTE      CAPCON0
*SFR* 000000E2H   DATA     BYTE      CAPCON1
*SFR* 000000E3H   DATA     BYTE      CAPCON2
*SFR* 0000009FH   DATA     BYTE      CHPCON
*SFR* 0000008EH   DATA     BYTE      CKCON
*SFR* 000000C1H   DATA     BYTE      CKDIV
*SFR* 00000097H   DATA     BYTE      CKEN
*SFR* 00000096H   DATA     BYTE      CKSWT
*SFR* 000000C8H.0 DATA     BIT       CM_RL2
*SFR* 000000BEH   DATA     BYTE      CWKH
*SFR* 00000086H   DATA     BYTE      CWKL
*SFR* 000000D0H.7 DATA     BIT       CY
*SFR* 000000F6H   DATA     BYTE      DMA0BAH
*SFR* 00000095H   DATA     BYTE      DMA0CCNT
*SFR* 00000094H   DATA     BYTE      DMA0CNT
*SFR* 00000092H   DATA     BYTE      DMA0CR0
*SFR* 0000008AH   DATA     BYTE      DMA0CR1
*SFR* 00000092H   DATA     BYTE      DMA0CRC
*SFR* 00000093H   DATA     BYTE      DMA0MAL
*SFR* 0000009AH   DATA     BYTE      DMA0SEED
LX51 LINKER/LOCATER V4.66.97.0                                                        10/05/2022  15:23:47  PAGE 4


*SFR* 000000E9H   DATA     BYTE      DMA0TSR
*SFR* 000000FDH   DATA     BYTE      DMA1BAH
*SFR* 000000EEH   DATA     BYTE      DMA1CCNT
*SFR* 000000EDH   DATA     BYTE      DMA1CNT
*SFR* 000000EBH   DATA     BYTE      DMA1CR0
*SFR* 0000008BH   DATA     BYTE      DMA1CR1
*SFR* 00000093H   DATA     BYTE      DMA1CRC
*SFR* 000000ECH   DATA     BYTE      DMA1MAL
*SFR* 0000009BH   DATA     BYTE      DMA1SEED
*SFR* 000000F1H   DATA     BYTE      DMA1TSR
*SFR* 000000B2H   DATA     BYTE      DMA2BAH
*SFR* 000000B6H   DATA     BYTE      DMA2CCNT
*SFR* 000000B5H   DATA     BYTE      DMA2CNT
*SFR* 000000B3H   DATA     BYTE      DMA2CR0
*SFR* 0000008CH   DATA     BYTE      DMA2CR1
*SFR* 00000094H   DATA     BYTE      DMA2CRC
*SFR* 000000B4H   DATA     BYTE      DMA2MAL
*SFR* 0000009CH   DATA     BYTE      DMA2SEED
*SFR* 000000B1H   DATA     BYTE      DMA2TSR
*SFR* 000000AAH   DATA     BYTE      DMA3BAH
*SFR* 000000AEH   DATA     BYTE      DMA3CCNT
*SFR* 000000ADH   DATA     BYTE      DMA3CNT
*SFR* 000000ABH   DATA     BYTE      DMA3CR0
*SFR* 0000008DH   DATA     BYTE      DMA3CR1
*SFR* 00000095H   DATA     BYTE      DMA3CRC
*SFR* 000000ACH   DATA     BYTE      DMA3MAL
*SFR* 0000009DH   DATA     BYTE      DMA3SEED
*SFR* 000000A9H   DATA     BYTE      DMA3TSR
*SFR* 00000083H   DATA     BYTE      DPH
*SFR* 00000082H   DATA     BYTE      DPL
*SFR* 000000A8H.7 DATA     BIT       EA
*SFR* 000000A8H.6 DATA     BIT       EADC
*SFR* 000000A8H.5 DATA     BIT       EBOD
*SFR* 0000009BH   DATA     BYTE      EIE0
*SFR* 0000009CH   DATA     BYTE      EIE1
*SFR* 000000EFH   DATA     BYTE      EIP0
*SFR* 000000FEH   DATA     BYTE      EIP1
*SFR* 000000ACH   DATA     BYTE      EIP2
*SFR* 000000F7H   DATA     BYTE      EIPH0
*SFR* 000000FFH   DATA     BYTE      EIPH1
*SFR* 000000ADH   DATA     BYTE      EIPH2
*SFR* 000000A8H.4 DATA     BIT       ES
*SFR* 000000A8H.1 DATA     BIT       ET0
*SFR* 000000A8H.3 DATA     BIT       ET1
*SFR* 000000A8H.0 DATA     BIT       EX0
*SFR* 000000A8H.2 DATA     BIT       EX1
*SFR* 000000D0H.5 DATA     BIT       F0
*SFR* 00000098H.7 DATA     BIT       FE
*SFR* 000000F8H.7 DATA     BIT       FE_1
*SFR* 000000C1H   DATA     BYTE      I2C0ADDR0
*SFR* 000000A1H   DATA     BYTE      I2C0ADDR1
*SFR* 000000A2H   DATA     BYTE      I2C0ADDR2
*SFR* 000000A3H   DATA     BYTE      I2C0ADDR3
*SFR* 000000CFH   DATA     BYTE      I2C0ADDRM
*SFR* 000000BEH   DATA     BYTE      I2C0CLK
*SFR* 000000C0H   DATA     BYTE      I2C0CON
*SFR* 000000BCH   DATA     BYTE      I2C0DAT
*SFR* 000000C0H.0 DATA     BIT       I2C0PX
*SFR* 000000BDH   DATA     BYTE      I2C0STAT
*SFR* 000000BFH   DATA     BYTE      I2C0TOC
*SFR* 000000B2H   DATA     BYTE      I2C1ADDR0
*SFR* 000000A4H   DATA     BYTE      I2C1ADDR1
*SFR* 000000A5H   DATA     BYTE      I2C1ADDR2
*SFR* 000000A6H   DATA     BYTE      I2C1ADDR3
*SFR* 000000D7H   DATA     BYTE      I2C1ADDRM
LX51 LINKER/LOCATER V4.66.97.0                                                        10/05/2022  15:23:47  PAGE 5


*SFR* 000000B5H   DATA     BYTE      I2C1CLK
*SFR* 000000E8H   DATA     BYTE      I2C1CON
*SFR* 000000B3H   DATA     BYTE      I2C1DAT
*SFR* 000000B4H   DATA     BYTE      I2C1STAT
*SFR* 000000B6H   DATA     BYTE      I2C1TOC
*SFR* 000000C0H.6 DATA     BIT       I2CEN0
*SFR* 000000E8H.6 DATA     BIT       I2CEN1
*SFR* 000000E8H.0 DATA     BIT       I2CPX1
*SFR* 000000A7H   DATA     BYTE      IAPAH
*SFR* 000000A6H   DATA     BYTE      IAPAL
*SFR* 000000AFH   DATA     BYTE      IAPCN
*SFR* 000000AEH   DATA     BYTE      IAPFD
*SFR* 000000A4H   DATA     BYTE      IAPTRG
*SFR* 000000A5H   DATA     BYTE      IAPUEN
*SFR* 000000A8H   DATA     BYTE      IE
*SFR* 00000088H.1 DATA     BIT       IE0
*SFR* 00000088H.3 DATA     BIT       IE1
*SFR* 000000B8H   DATA     BYTE      IP
*SFR* 000000B7H   DATA     BYTE      IPH
*SFR* 00000088H.0 DATA     BIT       IT0
*SFR* 00000088H.2 DATA     BIT       IT1
*SFR* 000000FEH   DATA     BYTE      LCDBL
*SFR* 000000FAH   DATA     BYTE      LCDCLK
*SFR* 000000F9H   DATA     BYTE      LCDCON0
*SFR* 000000F4H   DATA     BYTE      LCDCON1
*SFR* 000000F5H   DATA     BYTE      LCDCPALCT0
*SFR* 000000E9H   DATA     BYTE      LCDCPALCT1
*SFR* 000000F6H   DATA     BYTE      LCDCPCT0
*SFR* 000000EAH   DATA     BYTE      LCDCPCT1
*SFR* 000000F1H   DATA     BYTE      LCDCPUMP
*SFR* 000000FCH   DATA     BYTE      LCDDAT
*SFR* 000000FFH   DATA     BYTE      LCDMODE
*SFR* 000000FBH   DATA     BYTE      LCDPTR
*SFR* 000000FDH   DATA     BYTE      LCDPWR
*SFR* 000000EFH   DATA     BYTE      LDOTRIM
*SFR* 00000084H   DATA     BYTE      LIRCTRIM
*SFR* 000000FFH   DATA     BYTE      LVRDIS
*SFR* 000000FDH   DATA     BYTE      LVRFLTEN
      0100034EH   CODE     ---       main
*SFR* 000000EAH   DATA     BYTE      MTM0DAL
*SFR* 000000F2H   DATA     BYTE      MTM1DAL
*SFR* 000000B7H   DATA     BYTE      MTM2DAL
*SFR* 000000AFH   DATA     BYTE      MTM3DAL
*SFR* 000000D0H.2 DATA     BIT       OV
*SFR* 000000D0H.0 DATA     BIT       P
*SFR* 00000080H   DATA     BYTE      P0
*SFR* 00000080H.0 DATA     BIT       P00
*SFR* 00000080H.1 DATA     BIT       P01
*SFR* 00000080H.2 DATA     BIT       P02
*SFR* 00000080H.3 DATA     BIT       P03
*SFR* 00000080H.4 DATA     BIT       P04
*SFR* 00000080H.5 DATA     BIT       P05
*SFR* 00000080H.6 DATA     BIT       P06
*SFR* 00000080H.7 DATA     BIT       P07
*SFR* 0000008AH   DATA     BYTE      P0DW
*SFR* 000000B1H   DATA     BYTE      P0M1
*SFR* 000000B2H   DATA     BYTE      P0M2
*SFR* 000000F9H   DATA     BYTE      P0MF10
*SFR* 000000FAH   DATA     BYTE      P0MF32
*SFR* 000000FBH   DATA     BYTE      P0MF54
*SFR* 000000FCH   DATA     BYTE      P0MF76
*SFR* 00000099H   DATA     BYTE      P0S
*SFR* 0000009AH   DATA     BYTE      P0SR
*SFR* 00000092H   DATA     BYTE      P0UP
*SFR* 00000090H   DATA     BYTE      P1
LX51 LINKER/LOCATER V4.66.97.0                                                        10/05/2022  15:23:47  PAGE 6


*SFR* 00000090H.0 DATA     BIT       P10
*SFR* 00000090H.1 DATA     BIT       P11
*SFR* 00000090H.2 DATA     BIT       P12
*SFR* 00000090H.3 DATA     BIT       P13
*SFR* 00000090H.4 DATA     BIT       P14
*SFR* 00000090H.5 DATA     BIT       P15
*SFR* 00000090H.6 DATA     BIT       P16
*SFR* 00000090H.7 DATA     BIT       P17
*SFR* 0000008BH   DATA     BYTE      P1DW
*SFR* 000000B3H   DATA     BYTE      P1M1
*SFR* 000000B4H   DATA     BYTE      P1M2
*SFR* 000000FDH   DATA     BYTE      P1MF10
*SFR* 000000FEH   DATA     BYTE      P1MF32
*SFR* 000000FFH   DATA     BYTE      P1MF54
*SFR* 000000F1H   DATA     BYTE      P1MF76
*SFR* 0000009BH   DATA     BYTE      P1S
*SFR* 0000009CH   DATA     BYTE      P1SR
*SFR* 00000093H   DATA     BYTE      P1UP
*SFR* 000000A0H   DATA     BYTE      P2
*SFR* 000000A0H.0 DATA     BIT       P20
*SFR* 000000A0H.1 DATA     BIT       P21
*SFR* 000000A0H.2 DATA     BIT       P22
*SFR* 000000A0H.3 DATA     BIT       P23
*SFR* 000000A0H.4 DATA     BIT       P24
*SFR* 000000A0H.5 DATA     BIT       P25
*SFR* 000000A0H.6 DATA     BIT       P26
*SFR* 000000A0H.7 DATA     BIT       P27
*SFR* 0000008CH   DATA     BYTE      P2DW
*SFR* 000000B5H   DATA     BYTE      P2M1
*SFR* 000000B6H   DATA     BYTE      P2M2
*SFR* 000000F2H   DATA     BYTE      P2MF10
*SFR* 000000F3H   DATA     BYTE      P2MF32
*SFR* 000000F4H   DATA     BYTE      P2MF54
*SFR* 000000F5H   DATA     BYTE      P2MF76
*SFR* 0000009DH   DATA     BYTE      P2S
*SFR* 0000009EH   DATA     BYTE      P2SR
*SFR* 00000094H   DATA     BYTE      P2UP
*SFR* 000000B0H   DATA     BYTE      P3
*SFR* 000000B0H.0 DATA     BIT       P30
*SFR* 000000B0H.1 DATA     BIT       P31
*SFR* 000000B0H.2 DATA     BIT       P32
*SFR* 000000B0H.3 DATA     BIT       P33
*SFR* 000000B0H.4 DATA     BIT       P34
*SFR* 000000B0H.5 DATA     BIT       P35
*SFR* 000000B0H.6 DATA     BIT       P36
*SFR* 000000B0H.7 DATA     BIT       P37
*SFR* 0000008DH   DATA     BYTE      P3DW
*SFR* 000000C2H   DATA     BYTE      P3M1
*SFR* 000000C3H   DATA     BYTE      P3M2
*SFR* 000000F6H   DATA     BYTE      P3MF10
*SFR* 000000F7H   DATA     BYTE      P3MF32
*SFR* 000000E9H   DATA     BYTE      P3MF54
*SFR* 000000EAH   DATA     BYTE      P3MF76
*SFR* 000000ACH   DATA     BYTE      P3S
*SFR* 000000ADH   DATA     BYTE      P3SR
*SFR* 00000095H   DATA     BYTE      P3UP
*SFR* 000000D8H   DATA     BYTE      P4
*SFR* 000000D8H.0 DATA     BIT       P40
*SFR* 000000D8H.1 DATA     BIT       P41
*SFR* 000000D8H.2 DATA     BIT       P42
*SFR* 000000D8H.3 DATA     BIT       P43
*SFR* 000000D8H.4 DATA     BIT       P44
*SFR* 000000D8H.5 DATA     BIT       P45
*SFR* 000000D8H.6 DATA     BIT       P46
*SFR* 000000D8H.7 DATA     BIT       P47
LX51 LINKER/LOCATER V4.66.97.0                                                        10/05/2022  15:23:47  PAGE 7


*SFR* 0000008EH   DATA     BYTE      P4DW
*SFR* 000000B9H   DATA     BYTE      P4M1
*SFR* 000000BAH   DATA     BYTE      P4M2
*SFR* 000000EBH   DATA     BYTE      P4MF10
*SFR* 000000ECH   DATA     BYTE      P4MF32
*SFR* 000000EDH   DATA     BYTE      P4MF54
*SFR* 000000EEH   DATA     BYTE      P4MF76
*SFR* 000000BBH   DATA     BYTE      P4S
*SFR* 000000BCH   DATA     BYTE      P4SR
*SFR* 00000096H   DATA     BYTE      P4UP
*SFR* 000000B1H   DATA     BYTE      P5
*SFR* 0000008FH   DATA     BYTE      P5DW
*SFR* 000000BDH   DATA     BYTE      P5M1
*SFR* 000000BEH   DATA     BYTE      P5M2
*SFR* 000000EFH   DATA     BYTE      P5MF10
*SFR* 000000E1H   DATA     BYTE      P5MF32
*SFR* 000000E2H   DATA     BYTE      P5MF54
*SFR* 000000E3H   DATA     BYTE      P5MF76
*SFR* 000000BFH   DATA     BYTE      P5S
*SFR* 000000AEH   DATA     BYTE      P5SR
*SFR* 00000097H   DATA     BYTE      P5UP
*SFR* 000000A7H   DATA     BYTE      P6
*SFR* 0000008FH   DATA     BYTE      P6DW
*SFR* 00000084H   DATA     BYTE      P6M1
*SFR* 00000085H   DATA     BYTE      P6M2
*SFR* 00000092H   DATA     BYTE      P6MF10
*SFR* 00000093H   DATA     BYTE      P6MF32
*SFR* 00000094H   DATA     BYTE      P6MF54
*SFR* 00000095H   DATA     BYTE      P6MF76
*SFR* 00000096H   DATA     BYTE      P6S
*SFR* 0000008EH   DATA     BYTE      P6SR
*SFR* 00000097H   DATA     BYTE      P6UP
*SFR* 000000B8H.6 DATA     BIT       PADC
*SFR* 000000B8H.5 DATA     BIT       PBOD
*SFR* 00000087H   DATA     BYTE      PCON
*SFR* 000000E9H   DATA     BYTE      PICON
*SFR* 000000CAH   DATA     BYTE      PIF
*SFR* 000000EAH   DATA     BYTE      PINEN
*SFR* 000000EBH   DATA     BYTE      PIPEN
*SFR* 000000A1H   DATA     BYTE      PIPS0
*SFR* 000000A2H   DATA     BYTE      PIPS1
*SFR* 000000A3H   DATA     BYTE      PIPS2
*SFR* 000000A4H   DATA     BYTE      PIPS3
*SFR* 000000A5H   DATA     BYTE      PIPS4
*SFR* 000000A6H   DATA     BYTE      PIPS5
*SFR* 000000A7H   DATA     BYTE      PIPS6
*SFR* 000000AFH   DATA     BYTE      PIPS7
*SFR* 000000C6H   DATA     BYTE      PORDIS
*SFR* 000000B8H.4 DATA     BIT       PS
*SFR* 000000D0H   DATA     BYTE      PSW
*SFR* 000000B8H.1 DATA     BIT       PT0
*SFR* 000000B8H.3 DATA     BIT       PT1
*SFR* 000000D2H   DATA     BYTE      PWM0C0H
*SFR* 000000DAH   DATA     BYTE      PWM0C0L
*SFR* 000000D3H   DATA     BYTE      PWM0C1H
*SFR* 000000DBH   DATA     BYTE      PWM0C1L
*SFR* 000000D4H   DATA     BYTE      PWM0C2H
*SFR* 000000DCH   DATA     BYTE      PWM0C2L
*SFR* 000000D5H   DATA     BYTE      PWM0C3H
*SFR* 000000DDH   DATA     BYTE      PWM0C3L
*SFR* 000000C4H   DATA     BYTE      PWM0C4H
*SFR* 000000CCH   DATA     BYTE      PWM0C4L
*SFR* 000000C5H   DATA     BYTE      PWM0C5H
*SFR* 000000CDH   DATA     BYTE      PWM0C5L
*SFR* 000000D1H   DATA     BYTE      PWM0CON0
LX51 LINKER/LOCATER V4.66.97.0                                                        10/05/2022  15:23:47  PAGE 8


*SFR* 000000DFH   DATA     BYTE      PWM0CON1
*SFR* 000000FAH   DATA     BYTE      PWM0DTCNT
*SFR* 000000F9H   DATA     BYTE      PWM0DTEN
*SFR* 000000D7H   DATA     BYTE      PWM0FBD
*SFR* 000000CEH   DATA     BYTE      PWM0FBS
*SFR* 000000B7H   DATA     BYTE      PWM0INTC
*SFR* 000000FCH   DATA     BYTE      PWM0MD
*SFR* 000000FBH   DATA     BYTE      PWM0MEN
*SFR* 000000D6H   DATA     BYTE      PWM0NP
*SFR* 000000D1H   DATA     BYTE      PWM0PH
*SFR* 000000D9H   DATA     BYTE      PWM0PL
*SFR* 0000008AH   DATA     BYTE      PWM1C0H
*SFR* 0000009AH   DATA     BYTE      PWM1C0L
*SFR* 0000008BH   DATA     BYTE      PWM1C1H
*SFR* 0000009BH   DATA     BYTE      PWM1C1L
*SFR* 0000009CH   DATA     BYTE      PWM1CON0
*SFR* 0000009DH   DATA     BYTE      PWM1CON1
*SFR* 0000009EH   DATA     BYTE      PWM1INTC
*SFR* 0000008CH   DATA     BYTE      PWM1MD
*SFR* 0000008DH   DATA     BYTE      PWM1MEN
*SFR* 00000086H   DATA     BYTE      PWM1PH
*SFR* 00000099H   DATA     BYTE      PWM1PL
*SFR* 000000BAH   DATA     BYTE      PWM2C0H
*SFR* 000000C2H   DATA     BYTE      PWM2C0L
*SFR* 000000BBH   DATA     BYTE      PWM2C1H
*SFR* 000000C3H   DATA     BYTE      PWM2C1L
*SFR* 000000C4H   DATA     BYTE      PWM2CON0
*SFR* 000000C5H   DATA     BYTE      PWM2CON1
*SFR* 000000C6H   DATA     BYTE      PWM2INTC
*SFR* 000000BCH   DATA     BYTE      PWM2MD
*SFR* 000000BDH   DATA     BYTE      PWM2MEN
*SFR* 000000B9H   DATA     BYTE      PWM2PH
*SFR* 000000C1H   DATA     BYTE      PWM2PL
*SFR* 000000CAH   DATA     BYTE      PWM3C0H
*SFR* 000000D2H   DATA     BYTE      PWM3C0L
*SFR* 000000CBH   DATA     BYTE      PWM3C1H
*SFR* 000000D3H   DATA     BYTE      PWM3C1L
*SFR* 000000D4H   DATA     BYTE      PWM3CON0
*SFR* 000000D5H   DATA     BYTE      PWM3CON1
*SFR* 000000D6H   DATA     BYTE      PWM3INTC
*SFR* 000000CCH   DATA     BYTE      PWM3MD
*SFR* 000000CDH   DATA     BYTE      PWM3MEN
*SFR* 000000C9H   DATA     BYTE      PWM3PH
*SFR* 000000D1H   DATA     BYTE      PWM3PL
*SFR* 000000B8H.0 DATA     BIT       PX0
*SFR* 000000B8H.2 DATA     BIT       PX1
*SFR* 00000098H.2 DATA     BIT       RB8
*SFR* 000000F8H.2 DATA     BIT       RB8_1
*SFR* 000000CBH   DATA     BYTE      RCMP2H
*SFR* 000000CAH   DATA     BYTE      RCMP2L
*SFR* 00000084H   DATA     BYTE      RCTRIM0
*SFR* 00000085H   DATA     BYTE      RCTRIM1
*SFR* 00000098H.4 DATA     BIT       REN
*SFR* 000000F8H.4 DATA     BIT       REN_1
*SFR* 000000C6H   DATA     BYTE      RH3
*SFR* 00000098H.0 DATA     BIT       RI
*SFR* 000000F8H.0 DATA     BIT       RI_1
*SFR* 000000C5H   DATA     BYTE      RL3
*SFR* 000000D0H.3 DATA     BIT       RS0
*SFR* 000000D0H.4 DATA     BIT       RS1
*SFR* 0000009DH   DATA     BYTE      RSR
*SFR* 000000ADH   DATA     BYTE      RTCCALDAY
*SFR* 000000B5H   DATA     BYTE      RTCCALMDAY
*SFR* 000000B6H   DATA     BYTE      RTCCALMMON
*SFR* 000000AEH   DATA     BYTE      RTCCALMON
LX51 LINKER/LOCATER V4.66.97.0                                                        10/05/2022  15:23:47  PAGE 9


*SFR* 000000B7H   DATA     BYTE      RTCCALMYEAR
*SFR* 000000AFH   DATA     BYTE      RTCCALYEAR
*SFR* 000000BFH   DATA     BYTE      RTCCAMSK
*SFR* 000000B9H   DATA     BYTE      RTCCLKFMT
*SFR* 000000A3H   DATA     BYTE      RTCCLKSEL
*SFR* 000000A4H   DATA     BYTE      RTCFREQADJ0
*SFR* 000000A5H   DATA     BYTE      RTCFREQADJ1
*SFR* 000000A1H   DATA     BYTE      RTCINIT
*SFR* 000000A6H   DATA     BYTE      RTCINTEN
*SFR* 000000A7H   DATA     BYTE      RTCINTSTS
*SFR* 000000BCH   DATA     BYTE      RTCLEAPYEAR
*SFR* 000000A2H   DATA     BYTE      RTCRWEN
*SFR* 000000B3H   DATA     BYTE      RTCTALMHR
*SFR* 000000B4H   DATA     BYTE      RTCTALMHZ
*SFR* 000000B2H   DATA     BYTE      RTCTALMMIN
*SFR* 000000B1H   DATA     BYTE      RTCTALMSEC
*SFR* 000000BEH   DATA     BYTE      RTCTAMSK
*SFR* 000000BDH   DATA     BYTE      RTCTICK
*SFR* 000000ABH   DATA     BYTE      RTCTIMEHR
*SFR* 000000AAH   DATA     BYTE      RTCTIMEMIN
*SFR* 000000A9H   DATA     BYTE      RTCTIMESEC
*SFR* 000000BBH   DATA     BYTE      RTCWEEKDAY
*SFR* 000000BFH   DATA     BYTE      RWKH
*SFR* 00000086H   DATA     BYTE      RWKL
*SFR* 000000F8H   DATA     BYTE      S1CON
*SFR* 000000A9H   DATA     BYTE      SADDR
*SFR* 000000BBH   DATA     BYTE      SADDR1
*SFR* 000000B9H   DATA     BYTE      SADEN
*SFR* 000000BAH   DATA     BYTE      SADEN1
*SFR* 00000099H   DATA     BYTE      SBUF
*SFR* 0000009AH   DATA     BYTE      SBUF1
*SFR* 000000D6H   DATA     BYTE      SC0CR0
*SFR* 000000D7H   DATA     BYTE      SC0CR1
*SFR* 000000D9H   DATA     BYTE      SC0DR
*SFR* 000000DAH   DATA     BYTE      SC0EGT
*SFR* 000000DBH   DATA     BYTE      SC0ETURD0
*SFR* 000000DCH   DATA     BYTE      SC0ETURD1
*SFR* 000000DDH   DATA     BYTE      SC0IE
*SFR* 000000DEH   DATA     BYTE      SC0IS
*SFR* 000000DFH   DATA     BYTE      SC0TSR
*SFR* 000000E6H   DATA     BYTE      SC1CR0
*SFR* 000000E7H   DATA     BYTE      SC1CR1
*SFR* 000000D9H   DATA     BYTE      SC1DR
*SFR* 000000DAH   DATA     BYTE      SC1EGT
*SFR* 000000DBH   DATA     BYTE      SC1ETURD0
*SFR* 000000DCH   DATA     BYTE      SC1ETURD1
*SFR* 000000DDH   DATA     BYTE      SC1IE
*SFR* 000000DEH   DATA     BYTE      SC1IS
*SFR* 000000DFH   DATA     BYTE      SC1TSR
*SFR* 00000098H   DATA     BYTE      SCON
*SFR* 00000091H   DATA     BYTE      SFRS
      00000016H   DATA     BYTE      SFRS_TMP
*SFR* 000000C0H.3 DATA     BIT       SI0
*SFR* 000000E8H.3 DATA     BIT       SI1
*SFR* 00000098H.7 DATA     BIT       SM0
*SFR* 000000F8H.7 DATA     BIT       SM0_1
*SFR* 00000098H.6 DATA     BIT       SM1
*SFR* 000000F8H.6 DATA     BIT       SM1_1
*SFR* 00000098H.5 DATA     BIT       SM2
*SFR* 000000F8H.5 DATA     BIT       SM2_1
*SFR* 00000081H   DATA     BYTE      SP
*SFR* 000000F3H   DATA     BYTE      SPI0CR0
*SFR* 000000F3H   DATA     BYTE      SPI0CR1
*SFR* 000000F5H   DATA     BYTE      SPI0DR
*SFR* 000000F4H   DATA     BYTE      SPI0SR
LX51 LINKER/LOCATER V4.66.97.0                                                        10/05/2022  15:23:47  PAGE 10


*SFR* 000000F9H   DATA     BYTE      SPI1CR0
*SFR* 000000FAH   DATA     BYTE      SPI1CR1
*SFR* 000000FCH   DATA     BYTE      SPI1DR
*SFR* 000000FBH   DATA     BYTE      SPI1SR
*SFR* 000000C0H.5 DATA     BIT       STA0
*SFR* 000000E8H.5 DATA     BIT       STA1
*SFR* 000000C0H.4 DATA     BIT       STO0
*SFR* 000000E8H.4 DATA     BIT       STO1
*SFR* 000000C8H   DATA     BYTE      T2CON
*SFR* 000000C9H   DATA     BYTE      T2MOD
*SFR* 000000C4H   DATA     BYTE      T3CON
*SFR* 000000C7H   DATA     BYTE      TA
      00000017H   DATA     BYTE      TA_REG_TMP
*SFR* 00000098H.3 DATA     BIT       TB8
*SFR* 000000F8H.3 DATA     BIT       TB8_1
*SFR* 00000088H   DATA     BYTE      TCON
*SFR* 00000088H.5 DATA     BIT       TF0
*SFR* 00000088H.7 DATA     BIT       TF1
*SFR* 000000C8H.7 DATA     BIT       TF2
*SFR* 0000008CH   DATA     BYTE      TH0
*SFR* 0000008DH   DATA     BYTE      TH1
*SFR* 000000CDH   DATA     BYTE      TH2
*SFR* 00000098H.1 DATA     BIT       TI
*SFR* 000000F8H.1 DATA     BIT       TI_1
*SFR* 0000008AH   DATA     BYTE      TL0
*SFR* 0000008BH   DATA     BYTE      TL1
*SFR* 000000CCH   DATA     BYTE      TL2
*SFR* 00000089H   DATA     BYTE      TMOD
*SFR* 00000088H.4 DATA     BIT       TR0
*SFR* 00000088H.6 DATA     BIT       TR1
*SFR* 000000C8H.2 DATA     BIT       TR2
*SFR* 000000A9H   DATA     BYTE      VRFCON
*SFR* 000000AAH   DATA     BYTE      VRFTRIM
*SFR* 000000AAH   DATA     BYTE      WDCON
*SFR* 00000099H   DATA     BYTE      WDCONH
*SFR* 0000008FH   DATA     BYTE      WKCON
*SFR* 00000085H   DATA     BYTE      XLTCON



SYMBOL TABLE OF MODULE:  .\Output\GPIO_Input_Output (GPIO_LIB)

      VALUE       REP       CLASS    TYPE      SYMBOL NAME
      ====================================================
      ---         MODULE    ---      ---       GPIO_LIB
      0100034EH   PUBLIC    CODE     ---       main
      000000FFH   SFRSYM    DATA     BYTE      P1MF54
      000000E1H   SFRSYM    DATA     BYTE      P5MF32
      000000DBH   SFRSYM    DATA     BYTE      SC1ETURD0
      000000B1H   SFRSYM    DATA     BYTE      P0M1
      000000F1H   SFRSYM    DATA     BYTE      DMA1TSR
      000000DCH   SFRSYM    DATA     BYTE      SC0ETURD1
      000000B2H   SFRSYM    DATA     BYTE      RTCTALMMIN
      000000F4H   SFRSYM    DATA     BYTE      P2MF54
      000000DCH   SFRSYM    DATA     BYTE      SC1ETURD1
      000000B1H   SFRSYM    DATA     BYTE      DMA2TSR
      00000093H   SFRSYM    DATA     BYTE      P6MF32
      000000B3H   SFRSYM    DATA     BYTE      P1M1
      000000B2H   SFRSYM    DATA     BYTE      P0M2
      00000080H   SFRSYM    DATA     BYTE      P0
      000000AAH   SFRSYM    DATA     BYTE      RTCTIMEMIN
      000000E9H   SFRSYM    DATA     BYTE      P3MF54
      000000A9H   SFRSYM    DATA     BYTE      DMA3TSR
      000000B5H   SFRSYM    DATA     BYTE      P2M1
      000000B4H   SFRSYM    DATA     BYTE      P1M2
LX51 LINKER/LOCATER V4.66.97.0                                                        10/05/2022  15:23:47  PAGE 11


      00000090H   SFRSYM    DATA     BYTE      P1
      000000CEH   SFRSYM    DATA     BYTE      PWM0FBS
      000000FCH   SFRSYM    DATA     BYTE      P0MF76
      000000EDH   SFRSYM    DATA     BYTE      P4MF54
      000000C2H   SFRSYM    DATA     BYTE      P3M1
      000000B6H   SFRSYM    DATA     BYTE      P2M2
      000000A0H   SFRSYM    DATA     BYTE      P2
      000000C0H.6 SFRSYM    DATA     BIT       I2CEN0
      000000F1H   SFRSYM    DATA     BYTE      P1MF76
      000000E2H   SFRSYM    DATA     BYTE      P5MF54
      000000C3H   SFRSYM    DATA     BYTE      P3M2
      000000B9H   SFRSYM    DATA     BYTE      P4M1
      000000B0H   SFRSYM    DATA     BYTE      P3
      000000D0H.6 SFRSYM    DATA     BIT       AC
      000000E8H.6 SFRSYM    DATA     BIT       I2CEN1
      000000F5H   SFRSYM    DATA     BYTE      P2MF76
      00000094H   SFRSYM    DATA     BYTE      P6MF54
      000000BDH   SFRSYM    DATA     BYTE      P5M1
      000000BAH   SFRSYM    DATA     BYTE      P4M2
      000000D8H   SFRSYM    DATA     BYTE      P4
      0000009BH   SFRSYM    DATA     BYTE      EIE0
      0000008FH   SFRSYM    DATA     BYTE      WKCON
      00000084H   SFRSYM    DATA     BYTE      RCTRIM0
      000000EAH   SFRSYM    DATA     BYTE      P3MF76
      00000084H   SFRSYM    DATA     BYTE      P6M1
      000000BEH   SFRSYM    DATA     BYTE      P5M2
      000000B1H   SFRSYM    DATA     BYTE      P5
      0000009CH   SFRSYM    DATA     BYTE      EIE1
      00000085H   SFRSYM    DATA     BYTE      RCTRIM1
      000000A8H.7 SFRSYM    DATA     BIT       EA
      000000EEH   SFRSYM    DATA     BYTE      P4MF76
      000000A7H   SFRSYM    DATA     BYTE      P6
      00000085H   SFRSYM    DATA     BYTE      P6M2
      000000E3H   SFRSYM    DATA     BYTE      P5MF76
      000000FBH   SFRSYM    DATA     BYTE      PWM0MEN
      00000095H   SFRSYM    DATA     BYTE      P6MF76
      0000008DH   SFRSYM    DATA     BYTE      PWM1MEN
      000000A0H.5 SFRSYM    DATA     BIT       AIN0
      000000BDH   SFRSYM    DATA     BYTE      PWM2MEN
      000000A0H.4 SFRSYM    DATA     BIT       AIN1
      000000CDH   SFRSYM    DATA     BYTE      PWM3MEN
      000000A0H.3 SFRSYM    DATA     BIT       AIN2
      00000098H.7 SFRSYM    DATA     BIT       FE
      000000A0H.2 SFRSYM    DATA     BIT       AIN3
      000000A0H.1 SFRSYM    DATA     BIT       AIN4
      000000D6H   SFRSYM    DATA     BYTE      SC0CR0
      000000A0H.0 SFRSYM    DATA     BIT       AIN5
      000000A8H.6 SFRSYM    DATA     BIT       EADC
      000000E6H   SFRSYM    DATA     BYTE      SC1CR0
      000000D7H   SFRSYM    DATA     BYTE      SC0CR1
      000000A8H   SFRSYM    DATA     BYTE      IE
      00000096H   SFRSYM    DATA     BYTE      CKSWT
      000000B0H.1 SFRSYM    DATA     BIT       AIN6
      000000E7H   SFRSYM    DATA     BYTE      SC1CR1
      000000EFH   SFRSYM    DATA     BYTE      EIP0
      000000B0H.2 SFRSYM    DATA     BIT       AIN7
      000000FEH   SFRSYM    DATA     BYTE      EIP1
      000000ACH   SFRSYM    DATA     BYTE      EIP2
      000000E4H   SFRSYM    DATA     BYTE      ADCBAH
      000000C7H   SFRSYM    DATA     BYTE      TA
      000000E4H   SFRSYM    DATA     BYTE      BRCTRIM
      000000BDH   SFRSYM    DATA     BYTE      RTCTICK
      000000C0H.0 SFRSYM    DATA     BIT       I2C0PX
      000000A8H.4 SFRSYM    DATA     BIT       ES
      000000E8H.0 SFRSYM    DATA     BIT       I2CPX1
LX51 LINKER/LOCATER V4.66.97.0                                                        10/05/2022  15:23:47  PAGE 12


      000000C0H.5 SFRSYM    DATA     BIT       STA0
      000000B8H.6 SFRSYM    DATA     BIT       PADC
      000000CBH   SFRSYM    DATA     BYTE      ADCBAL
      000000B8H   SFRSYM    DATA     BYTE      IP
      000000E8H.5 SFRSYM    DATA     BIT       STA1
      000000E5H   SFRSYM    DATA     BYTE      ADCCAL
      000000A8H.5 SFRSYM    DATA     BIT       EBOD
      00000098H.0 SFRSYM    DATA     BIT       RI
      000000ADH   SFRSYM    DATA     BYTE      RTCCALDAY
      000000A4H   SFRSYM    DATA     BYTE      RTCFREQADJ0
      000000F8H.7 SFRSYM    DATA     BIT       FE_1
      000000D0H.7 SFRSYM    DATA     BIT       CY
      000000A5H   SFRSYM    DATA     BYTE      RTCFREQADJ1
      0000008AH   SFRSYM    DATA     BYTE      P0DW
      00000098H.1 SFRSYM    DATA     BIT       TI
      0000008BH   SFRSYM    DATA     BYTE      P1DW
      000000EFH   SFRSYM    DATA     BYTE      LDOTRIM
      0000008CH   SFRSYM    DATA     BYTE      P2DW
      000000BAH   SFRSYM    DATA     BYTE      SADEN1
      0000008DH   SFRSYM    DATA     BYTE      P3DW
      000000A1H   SFRSYM    DATA     BYTE      RTCINIT
      0000008EH   SFRSYM    DATA     BYTE      P4DW
      0000008FH   SFRSYM    DATA     BYTE      P5DW
      000000BBH   SFRSYM    DATA     BYTE      SADDR1
      0000008FH   SFRSYM    DATA     BYTE      P6DW
      00000097H   SFRSYM    DATA     BYTE      CKEN
      000000B8H.4 SFRSYM    DATA     BIT       PS
      00000081H   SFRSYM    DATA     BYTE      SP
      000000D0H.2 SFRSYM    DATA     BIT       OV
      000000FAH   SFRSYM    DATA     BYTE      PWM0DTCNT
      000000B8H.5 SFRSYM    DATA     BIT       PBOD
      0000009AH   SFRSYM    DATA     BYTE      DMA0SEED
      0000009AH   SFRSYM    DATA     BYTE      P0SR
      00000092H   SFRSYM    DATA     BYTE      P0UP
      000000C0H.4 SFRSYM    DATA     BIT       STO0
      000000AEH   SFRSYM    DATA     BYTE      RTCCALMON
      0000009BH   SFRSYM    DATA     BYTE      DMA1SEED
      0000009CH   SFRSYM    DATA     BYTE      P1SR
      00000093H   SFRSYM    DATA     BYTE      P1UP
      000000E8H.4 SFRSYM    DATA     BIT       STO1
      000000A2H   SFRSYM    DATA     BYTE      RTCRWEN
      0000009CH   SFRSYM    DATA     BYTE      DMA2SEED
      0000009EH   SFRSYM    DATA     BYTE      P2SR
      00000094H   SFRSYM    DATA     BYTE      P2UP
      000000DAH   SFRSYM    DATA     BYTE      SC0EGT
      0000009DH   SFRSYM    DATA     BYTE      DMA3SEED
      000000DAH   SFRSYM    DATA     BYTE      SC1EGT
      000000ADH   SFRSYM    DATA     BYTE      P3SR
      00000095H   SFRSYM    DATA     BYTE      P3UP
      000000BCH   SFRSYM    DATA     BYTE      P4SR
      00000096H   SFRSYM    DATA     BYTE      P4UP
      000000A3H   SFRSYM    DATA     BYTE      RTCCLKSEL
      000000AEH   SFRSYM    DATA     BYTE      P5SR
      00000097H   SFRSYM    DATA     BYTE      P5UP
      000000F8H.0 SFRSYM    DATA     BIT       RI_1
      00000097H   SFRSYM    DATA     BYTE      P6UP
      0000008EH   SFRSYM    DATA     BYTE      P6SR
      000000AAH   SFRSYM    DATA     BYTE      VRFTRIM
      000000BDH   SFRSYM    DATA     BYTE      I2C0STAT
      00000095H   SFRSYM    DATA     BYTE      DMA0CCNT
      000000F8H.1 SFRSYM    DATA     BIT       TI_1
      000000FCH   SFRSYM    DATA     BYTE      LCDDAT
      000000B9H   SFRSYM    DATA     BYTE      RTCCLKFMT
      000000BEH   SFRSYM    DATA     BYTE      CWKH
      000000CBH   SFRSYM    DATA     BYTE      RCMP2H
LX51 LINKER/LOCATER V4.66.97.0                                                        10/05/2022  15:23:47  PAGE 13


      000000EEH   SFRSYM    DATA     BYTE      DMA1CCNT
      000000B4H   SFRSYM    DATA     BYTE      I2C1STAT
      000000FAH   SFRSYM    DATA     BYTE      LCDCLK
      000000B6H   SFRSYM    DATA     BYTE      DMA2CCNT
      000000CEH   SFRSYM    DATA     BYTE      AINDIDS0
      000000CFH   SFRSYM    DATA     BYTE      ADCMPH
      00000080H.0 SFRSYM    DATA     BIT       P00
      000000F6H   SFRSYM    DATA     BYTE      LCDCPCT0
      000000CEH   SFRSYM    DATA     BYTE      AINDIDS1
      000000AEH   SFRSYM    DATA     BYTE      DMA3CCNT
      00000090H.0 SFRSYM    DATA     BIT       P10
      00000080H.1 SFRSYM    DATA     BIT       P01
      000000EAH   SFRSYM    DATA     BYTE      LCDCPCT1
      00000099H   SFRSYM    DATA     BYTE      SBUF
      00000087H   SFRSYM    DATA     BYTE      PCON
      000000C0H.2 SFRSYM    DATA     BIT       AA0
      000000A0H.0 SFRSYM    DATA     BIT       P20
      00000090H.1 SFRSYM    DATA     BIT       P11
      00000080H.2 SFRSYM    DATA     BIT       P02
      000000CAH   SFRSYM    DATA     BYTE      RCMP2L
      00000086H   SFRSYM    DATA     BYTE      CWKL
      000000E8H.2 SFRSYM    DATA     BIT       AA1
      000000B0H.0 SFRSYM    DATA     BIT       P30
      000000A0H.1 SFRSYM    DATA     BIT       P21
      00000090H.2 SFRSYM    DATA     BIT       P12
      00000080H.3 SFRSYM    DATA     BIT       P03
      000000E3H   SFRSYM    DATA     BYTE      ADCDLY
      000000CEH   SFRSYM    DATA     BYTE      ADCMPL
      000000D8H.0 SFRSYM    DATA     BIT       P40
      000000B0H.1 SFRSYM    DATA     BIT       P31
      000000A0H.2 SFRSYM    DATA     BIT       P22
      00000090H.3 SFRSYM    DATA     BIT       P13
      00000080H.4 SFRSYM    DATA     BIT       P04
      000000F5H   SFRSYM    DATA     BYTE      SPI0DR
      00000098H   SFRSYM    DATA     BYTE      SCON
      000000D8H.1 SFRSYM    DATA     BIT       P41
      000000B0H.2 SFRSYM    DATA     BIT       P32
      000000A0H.3 SFRSYM    DATA     BIT       P23
      00000090H.4 SFRSYM    DATA     BIT       P14
      00000080H.5 SFRSYM    DATA     BIT       P05
      000000B3H   SFRSYM    DATA     BYTE      RTCTALMHR
      000000FCH   SFRSYM    DATA     BYTE      SPI1DR
      00000089H   SFRSYM    DATA     BYTE      TMOD
      00000088H   SFRSYM    DATA     BYTE      TCON
      000000D8H.2 SFRSYM    DATA     BIT       P42
      000000B0H.3 SFRSYM    DATA     BIT       P33
      000000A0H.4 SFRSYM    DATA     BIT       P24
      00000090H.5 SFRSYM    DATA     BIT       P15
      00000080H.6 SFRSYM    DATA     BIT       P06
      000000ABH   SFRSYM    DATA     BYTE      RTCTIMEHR
      000000D8H.3 SFRSYM    DATA     BIT       P43
      000000B0H.4 SFRSYM    DATA     BIT       P34
      000000A0H.5 SFRSYM    DATA     BIT       P25
      00000090H.6 SFRSYM    DATA     BIT       P16
      00000080H.7 SFRSYM    DATA     BIT       P07
      000000FCH   SFRSYM    DATA     BYTE      PWM0MD
      000000D1H   SFRSYM    DATA     BYTE      PWM0CON0
      000000D8H.4 SFRSYM    DATA     BIT       P44
      000000B0H.5 SFRSYM    DATA     BIT       P35
      000000A0H.6 SFRSYM    DATA     BIT       P26
      00000090H.7 SFRSYM    DATA     BIT       P17
      0000009CH   SFRSYM    DATA     BYTE      PWM1CON0
      0000008CH   SFRSYM    DATA     BYTE      PWM1MD
      000000DFH   SFRSYM    DATA     BYTE      PWM0CON1
      000000D8H.5 SFRSYM    DATA     BIT       P45
LX51 LINKER/LOCATER V4.66.97.0                                                        10/05/2022  15:23:47  PAGE 14


      000000B0H.6 SFRSYM    DATA     BIT       P36
      000000A0H.7 SFRSYM    DATA     BIT       P27
      000000C4H   SFRSYM    DATA     BYTE      PWM2CON0
      000000BCH   SFRSYM    DATA     BYTE      PWM2MD
      0000009DH   SFRSYM    DATA     BYTE      PWM1CON1
      000000D8H.6 SFRSYM    DATA     BIT       P46
      000000B0H.7 SFRSYM    DATA     BIT       P37
      000000D4H   SFRSYM    DATA     BYTE      PWM3CON0
      000000CCH   SFRSYM    DATA     BYTE      PWM3MD
      000000C5H   SFRSYM    DATA     BYTE      PWM2CON1
      000000D8H.7 SFRSYM    DATA     BIT       P47
      000000D5H   SFRSYM    DATA     BYTE      PWM3CON1
      000000E5H   SFRSYM    DATA     BYTE      C0H
      000000B7H   SFRSYM    DATA     BYTE      RTCCALMYEAR
      000000E7H   SFRSYM    DATA     BYTE      C1H
      000000C1H   SFRSYM    DATA     BYTE      I2C0ADDR0
      000000B4H   SFRSYM    DATA     BYTE      RTCTALMHZ
      000000BFH   SFRSYM    DATA     BYTE      RWKH
      000000A1H   SFRSYM    DATA     BYTE      I2C0ADDR1
      000000EEH   SFRSYM    DATA     BYTE      C2H
      000000B2H   SFRSYM    DATA     BYTE      I2C1ADDR0
      0000009FH   SFRSYM    DATA     BYTE      CHPCON
      00000088H.1 SFRSYM    DATA     BIT       IE0
      000000F5H   SFRSYM    DATA     BYTE      LCDCPALCT0
      000000A4H   SFRSYM    DATA     BYTE      I2C1ADDR1
      000000A2H   SFRSYM    DATA     BYTE      I2C0ADDR2
      000000D1H   SFRSYM    DATA     BYTE      PWM0PH
      00000088H.3 SFRSYM    DATA     BIT       IE1
      000000E9H   SFRSYM    DATA     BYTE      LCDCPALCT1
      000000A5H   SFRSYM    DATA     BYTE      I2C1ADDR2
      000000A3H   SFRSYM    DATA     BYTE      I2C0ADDR3
      00000086H   SFRSYM    DATA     BYTE      PWM1PH
      000000E4H   SFRSYM    DATA     BYTE      C0L
      00000091H   SFRSYM    DATA     BYTE      SFRS
      000000B9H   SFRSYM    DATA     BYTE      PWM2PH
      000000A6H   SFRSYM    DATA     BYTE      I2C1ADDR3
      000000E6H   SFRSYM    DATA     BYTE      C1L
      000000C8H.0 SFRSYM    DATA     BIT       CM_RL2
      000000BCH   SFRSYM    DATA     BYTE      RTCLEAPYEAR
      000000C9H   SFRSYM    DATA     BYTE      PWM3PH
      000000EDH   SFRSYM    DATA     BYTE      C2L
      000000F0H   SFRSYM    DATA     BYTE      B
      000000DFH   SFRSYM    DATA     BYTE      SC0TSR
      00000086H   SFRSYM    DATA     BYTE      RWKL
      000000DFH   SFRSYM    DATA     BYTE      SC1TSR
      000000D9H   SFRSYM    DATA     BYTE      PWM0PL
      00000099H   SFRSYM    DATA     BYTE      PWM1PL
      000000F4H   SFRSYM    DATA     BYTE      SPI0SR
      000000C1H   SFRSYM    DATA     BYTE      PWM2PL
      000000D6H   SFRSYM    DATA     BYTE      PWM0NP
      000000FBH   SFRSYM    DATA     BYTE      SPI1SR
      000000A5H   SFRSYM    DATA     BYTE      IAPUEN
      00000099H   SFRSYM    DATA     BYTE      WDCONH
      000000D1H   SFRSYM    DATA     BYTE      PWM3PL
      000000E0H   SFRSYM    DATA     BYTE      ACC
      000000D4H   SFRSYM    DATA     BYTE      ACMPSR
      000000A8H.1 SFRSYM    DATA     BIT       ET0
      000000BCH   SFRSYM    DATA     BYTE      I2C0DAT
      000000A4H   SFRSYM    DATA     BYTE      IAPTRG
      00000092H   SFRSYM    DATA     BYTE      DMA0CR0
      000000A8H.3 SFRSYM    DATA     BIT       ET1
      00000088H.5 SFRSYM    DATA     BIT       TF0
      0000008AH   SFRSYM    DATA     BYTE      DMA0CR1
      000000EBH   SFRSYM    DATA     BYTE      DMA1CR0
      000000BEH   SFRSYM    DATA     BYTE      I2C0CLK
LX51 LINKER/LOCATER V4.66.97.0                                                        10/05/2022  15:23:47  PAGE 15


      000000B3H   SFRSYM    DATA     BYTE      I2C1DAT
      00000088H.7 SFRSYM    DATA     BIT       TF1
      000000FBH   SFRSYM    DATA     BYTE      LCDPTR
      0000008BH   SFRSYM    DATA     BYTE      DMA1CR1
      000000B3H   SFRSYM    DATA     BYTE      DMA2CR0
      000000B5H   SFRSYM    DATA     BYTE      I2C1CLK
      000000C8H.7 SFRSYM    DATA     BIT       TF2
      000000C0H.3 SFRSYM    DATA     BIT       SI0
      00000098H.2 SFRSYM    DATA     BIT       RB8
      0000008CH   SFRSYM    DATA     BYTE      DMA2CR1
      000000ABH   SFRSYM    DATA     BYTE      DMA3CR0
      0000008CH   SFRSYM    DATA     BYTE      TH0
      000000E8H.3 SFRSYM    DATA     BIT       SI1
      000000A8H.0 SFRSYM    DATA     BIT       EX0
      00000088H.0 SFRSYM    DATA     BIT       IT0
      0000008DH   SFRSYM    DATA     BYTE      DMA3CR1
      000000C6H   SFRSYM    DATA     BYTE      RH3
      0000008DH   SFRSYM    DATA     BYTE      TH1
      000000A8H.2 SFRSYM    DATA     BIT       EX1
      00000098H.3 SFRSYM    DATA     BIT       TB8
      00000088H.2 SFRSYM    DATA     BIT       IT1
      000000FDH   SFRSYM    DATA     BYTE      LCDPWR
      000000CDH   SFRSYM    DATA     BYTE      TH2
      000000D0H.0 SFRSYM    DATA     BIT       P
      000000F6H   SFRSYM    DATA     BYTE      DMA0BAH
      00000098H.7 SFRSYM    DATA     BIT       SM0
      000000A9H   SFRSYM    DATA     BYTE      VRFCON
      000000FDH   SFRSYM    DATA     BYTE      DMA1BAH
      000000C0H   SFRSYM    DATA     BYTE      I2C0CON
      0000008AH   SFRSYM    DATA     BYTE      TL0
      00000098H.6 SFRSYM    DATA     BIT       SM1
      000000B2H   SFRSYM    DATA     BYTE      DMA2BAH
      000000E8H   SFRSYM    DATA     BYTE      I2C1CON
      000000C5H   SFRSYM    DATA     BYTE      RL3
      0000008BH   SFRSYM    DATA     BYTE      TL1
      00000098H.5 SFRSYM    DATA     BIT       SM2
      000000A7H   SFRSYM    DATA     BYTE      RTCINTSTS
      000000AAH   SFRSYM    DATA     BYTE      DMA3BAH
      000000F9H   SFRSYM    DATA     BYTE      PWM0DTEN
      000000CCH   SFRSYM    DATA     BYTE      TL2
      000000C6H   SFRSYM    DATA     BYTE      PORDIS
      00000099H   SFRSYM    DATA     BYTE      P0S
      000000B8H.1 SFRSYM    DATA     BIT       PT0
      0000009BH   SFRSYM    DATA     BYTE      P1S
      000000D0H.3 SFRSYM    DATA     BIT       RS0
      000000B8H.3 SFRSYM    DATA     BIT       PT1
      000000B7H   SFRSYM    DATA     BYTE      PWM0INTC
      0000009DH   SFRSYM    DATA     BYTE      P2S
      000000DDH   SFRSYM    DATA     BYTE      SC0IE
      000000D0H.4 SFRSYM    DATA     BIT       RS1
      00000088H.4 SFRSYM    DATA     BIT       TR0
      000000DDH   SFRSYM    DATA     BYTE      SC1IE
      0000009EH   SFRSYM    DATA     BYTE      PWM1INTC
      000000FFH   SFRSYM    DATA     BYTE      LVRDIS
      000000ACH   SFRSYM    DATA     BYTE      P3S
      000000BFH   SFRSYM    DATA     BYTE      I2C0TOC
      00000088H.6 SFRSYM    DATA     BIT       TR1
      000000C6H   SFRSYM    DATA     BYTE      PWM2INTC
      000000BBH   SFRSYM    DATA     BYTE      P4S
      000000F7H   SFRSYM    DATA     BYTE      EIPH0
      000000D5H   SFRSYM    DATA     BYTE      ACMPVREF
      000000B6H   SFRSYM    DATA     BYTE      I2C1TOC
      000000C8H.2 SFRSYM    DATA     BIT       TR2
      000000B8H.0 SFRSYM    DATA     BIT       PX0
      000000D6H   SFRSYM    DATA     BYTE      PWM3INTC
LX51 LINKER/LOCATER V4.66.97.0                                                        10/05/2022  15:23:47  PAGE 16


      000000BFH   SFRSYM    DATA     BYTE      P5S
      000000FFH   SFRSYM    DATA     BYTE      EIPH1
      000000B8H.2 SFRSYM    DATA     BIT       PX1
      000000CFH   SFRSYM    DATA     BYTE      I2C0ADDRM
      00000096H   SFRSYM    DATA     BYTE      P6S
      000000ADH   SFRSYM    DATA     BYTE      EIPH2
      000000D7H   SFRSYM    DATA     BYTE      I2C1ADDRM
      00000085H   SFRSYM    DATA     BYTE      XLTCON
      000000E6H   SFRSYM    DATA     BYTE      ADCCN
      000000A1H   SFRSYM    DATA     BYTE      ADCCON0
      000000F1H   SFRSYM    DATA     BYTE      LCDCPUMP
      000000BFH   SFRSYM    DATA     BYTE      RTCCAMSK
      000000E1H   SFRSYM    DATA     BYTE      ADCCON1
      00000092H   SFRSYM    DATA     BYTE      DMA0CRC
      000000E2H   SFRSYM    DATA     BYTE      ADCCON2
      00000083H   SFRSYM    DATA     BYTE      DPH
      000000F8H.2 SFRSYM    DATA     BIT       RB8_1
      00000093H   SFRSYM    DATA     BYTE      DMA1CRC
      000000D9H   SFRSYM    DATA     BYTE      SC0DR
      00000094H   SFRSYM    DATA     BYTE      DMA2CRC
      000000D9H   SFRSYM    DATA     BYTE      SC1DR
      00000093H   SFRSYM    DATA     BYTE      DMA0MAL
      000000F8H.3 SFRSYM    DATA     BIT       TB8_1
      00000095H   SFRSYM    DATA     BYTE      DMA3CRC
      000000ECH   SFRSYM    DATA     BYTE      DMA1MAL
      000000CAH   SFRSYM    DATA     BYTE      PIF
      000000B4H   SFRSYM    DATA     BYTE      DMA2MAL
      00000082H   SFRSYM    DATA     BYTE      DPL
      000000F8H.7 SFRSYM    DATA     BIT       SM0_1
      000000ACH   SFRSYM    DATA     BYTE      DMA3MAL
      000000D2H   SFRSYM    DATA     BYTE      PWM0C0H
      000000B7H   SFRSYM    DATA     BYTE      IPH
      000000F8H.6 SFRSYM    DATA     BIT       SM1_1
      000000FEH   SFRSYM    DATA     BYTE      LCDBL
      0000008AH   SFRSYM    DATA     BYTE      PWM1C0H
      000000D3H   SFRSYM    DATA     BYTE      PWM0C1H
      0000009AH   SFRSYM    DATA     BYTE      SBUF1
      000000F8H.5 SFRSYM    DATA     BIT       SM2_1
      000000BAH   SFRSYM    DATA     BYTE      PWM2C0H
      0000008BH   SFRSYM    DATA     BYTE      PWM1C1H
      000000D4H   SFRSYM    DATA     BYTE      PWM0C2H
      000000F3H   SFRSYM    DATA     BYTE      SPI0CR0
      000000DEH   SFRSYM    DATA     BYTE      SC0IS
      000000C3H   SFRSYM    DATA     BYTE      ADCRH
      000000DEH   SFRSYM    DATA     BYTE      SC1IS
      000000CAH   SFRSYM    DATA     BYTE      PWM3C0H
      000000BBH   SFRSYM    DATA     BYTE      PWM2C1H
      000000F3H   SFRSYM    DATA     BYTE      SPI0CR1
      000000D5H   SFRSYM    DATA     BYTE      PWM0C3H
      000000F9H   SFRSYM    DATA     BYTE      SPI1CR0
      000000A7H   SFRSYM    DATA     BYTE      IAPAH
      00000098H.4 SFRSYM    DATA     BIT       REN
      000000F9H   SFRSYM    DATA     BYTE      LCDCON0
      000000CBH   SFRSYM    DATA     BYTE      PWM3C1H
      000000DAH   SFRSYM    DATA     BYTE      PWM0C0L
      000000C4H   SFRSYM    DATA     BYTE      PWM0C4H
      000000FAH   SFRSYM    DATA     BYTE      SPI1CR1
      000000F8H   SFRSYM    DATA     BYTE      S1CON
      000000AEH   SFRSYM    DATA     BYTE      IAPFD
      000000F4H   SFRSYM    DATA     BYTE      LCDCON1
      0000009AH   SFRSYM    DATA     BYTE      PWM1C0L
      000000E1H   SFRSYM    DATA     BYTE      CAPCON0
      000000DBH   SFRSYM    DATA     BYTE      PWM0C1L
      000000C5H   SFRSYM    DATA     BYTE      PWM0C5H
      000000C2H   SFRSYM    DATA     BYTE      PWM2C0L
LX51 LINKER/LOCATER V4.66.97.0                                                        10/05/2022  15:23:47  PAGE 17


      0000009BH   SFRSYM    DATA     BYTE      PWM1C1L
      000000E2H   SFRSYM    DATA     BYTE      CAPCON1
      000000DCH   SFRSYM    DATA     BYTE      PWM0C2L
      000000C9H   SFRSYM    DATA     BYTE      T2MOD
      000000C8H   SFRSYM    DATA     BYTE      T2CON
      000000C2H   SFRSYM    DATA     BYTE      ADCRL
      000000A3H   SFRSYM    DATA     BYTE      BODCON0
      000000B5H   SFRSYM    DATA     BYTE      RTCCALMDAY
      000000D2H   SFRSYM    DATA     BYTE      PWM3C0L
      000000C3H   SFRSYM    DATA     BYTE      PWM2C1L
      000000E3H   SFRSYM    DATA     BYTE      CAPCON2
      000000DDH   SFRSYM    DATA     BYTE      PWM0C3L
      000000D2H   SFRSYM    DATA     BYTE      ACMPCR0
      000000C4H   SFRSYM    DATA     BYTE      T3CON
      000000ABH   SFRSYM    DATA     BYTE      BODCON1
      000000A6H   SFRSYM    DATA     BYTE      IAPAL
      000000D3H   SFRSYM    DATA     BYTE      PWM3C1L
      000000CCH   SFRSYM    DATA     BYTE      PWM0C4L
      00000084H   SFRSYM    DATA     BYTE      LIRCTRIM
      000000D3H   SFRSYM    DATA     BYTE      ACMPCR1
      00000094H   SFRSYM    DATA     BYTE      DMA0CNT
      000000A6H   SFRSYM    DATA     BYTE      RTCINTEN
      000000CDH   SFRSYM    DATA     BYTE      PWM0C5L
      000000ABH   SFRSYM    DATA     BYTE      ACMPCR2
      000000EDH   SFRSYM    DATA     BYTE      DMA1CNT
      000000E5H   SFRSYM    DATA     BYTE      ADCSN
      000000B5H   SFRSYM    DATA     BYTE      DMA2CNT
      000000BEH   SFRSYM    DATA     BYTE      RTCTAMSK
      000000ADH   SFRSYM    DATA     BYTE      DMA3CNT
      000000B9H   SFRSYM    DATA     BYTE      SADEN
      000000AFH   SFRSYM    DATA     BYTE      IAPCN
      000000A1H   SFRSYM    DATA     BYTE      PIPS0
      000000AFH   SFRSYM    DATA     BYTE      RTCCALYEAR
      000000A2H   SFRSYM    DATA     BYTE      PIPS1
      000000E7H   SFRSYM    DATA     BYTE      ADCSR
      000000A3H   SFRSYM    DATA     BYTE      PIPS2
      000000A9H   SFRSYM    DATA     BYTE      SADDR
      0000008EH   SFRSYM    DATA     BYTE      CKCON
      000000FDH   SFRSYM    DATA     BYTE      LVRFLTEN
      000000A4H   SFRSYM    DATA     BYTE      PIPS3
      000000A5H   SFRSYM    DATA     BYTE      PIPS4
      000000EAH   SFRSYM    DATA     BYTE      MTM0DAL
      000000A2H   SFRSYM    DATA     BYTE      AUXR0
      000000D7H   SFRSYM    DATA     BYTE      PWM0FBD
      000000C9H   SFRSYM    DATA     BYTE      AUXR1
      000000C1H   SFRSYM    DATA     BYTE      CKDIV
      000000A6H   SFRSYM    DATA     BYTE      PIPS5
      000000F2H   SFRSYM    DATA     BYTE      MTM1DAL
      000000B7H   SFRSYM    DATA     BYTE      MTM2DAL
      000000A7H   SFRSYM    DATA     BYTE      PIPS6
      000000CFH   SFRSYM    DATA     BYTE      AUXR3
      000000B6H   SFRSYM    DATA     BYTE      RTCCALMMON
      000000AFH   SFRSYM    DATA     BYTE      MTM3DAL
      000000AFH   SFRSYM    DATA     BYTE      PIPS7
      000000D0H.5 SFRSYM    DATA     BIT       F0
      000000F9H   SFRSYM    DATA     BYTE      P0MF10
      000000F8H.4 SFRSYM    DATA     BIT       REN_1
      000000B1H   SFRSYM    DATA     BYTE      RTCTALMSEC
      000000FDH   SFRSYM    DATA     BYTE      P1MF10
      000000BBH   SFRSYM    DATA     BYTE      RTCWEEKDAY
      000000A9H   SFRSYM    DATA     BYTE      RTCTIMESEC
      000000F2H   SFRSYM    DATA     BYTE      P2MF10
      0000009DH   SFRSYM    DATA     BYTE      RSR
      000000F6H   SFRSYM    DATA     BYTE      P3MF10
      000000FAH   SFRSYM    DATA     BYTE      P0MF32
LX51 LINKER/LOCATER V4.66.97.0                                                        10/05/2022  15:23:47  PAGE 18


      000000EBH   SFRSYM    DATA     BYTE      P4MF10
      000000FFH   SFRSYM    DATA     BYTE      LCDMODE
      000000FEH   SFRSYM    DATA     BYTE      P1MF32
      000000EFH   SFRSYM    DATA     BYTE      P5MF10
      000000E9H   SFRSYM    DATA     BYTE      PICON
      000000D0H   SFRSYM    DATA     BYTE      PSW
      000000F3H   SFRSYM    DATA     BYTE      P2MF32
      00000092H   SFRSYM    DATA     BYTE      P6MF10
      000000EAH   SFRSYM    DATA     BYTE      PINEN
      000000F7H   SFRSYM    DATA     BYTE      P3MF32
      000000AAH   SFRSYM    DATA     BYTE      WDCON
      000000FBH   SFRSYM    DATA     BYTE      P0MF54
      000000ECH   SFRSYM    DATA     BYTE      P4MF32
      000000EBH   SFRSYM    DATA     BYTE      PIPEN
      000000E9H   SFRSYM    DATA     BYTE      DMA0TSR
      000000DBH   SFRSYM    DATA     BYTE      SC0ETURD0

      0100034EH   BLOCK     CODE     ---       LVL=0
      0100034EH   LINE      CODE     ---       #15
      0100034EH   LINE      CODE     ---       #16
      0100034EH   LINE      CODE     ---       #18
      01000357H   LINE      CODE     ---       #19
      01000360H   LINE      CODE     ---       #20
      01000369H   LINE      CODE     ---       #21
      01000369H   LINE      CODE     ---       #22
      01000369H   LINE      CODE     ---       #23
      0100036CH   LINE      CODE     ---       #24
      0100036FH   LINE      CODE     ---       #25
      01000377H   LINE      CODE     ---       #26
      0100037DH   LINE      CODE     ---       #27
      01000382H   LINE      CODE     ---       #28
      01000382H   LINE      CODE     ---       #29
      01000383H   LINE      CODE     ---       #30
      01000383H   LINE      CODE     ---       #31
      010003A4H   LINE      CODE     ---       #33
      010003ACH   LINE      CODE     ---       #34
      010003B2H   LINE      CODE     ---       #35
      010003B7H   LINE      CODE     ---       #36
      010003B7H   LINE      CODE     ---       #37
      010003B8H   LINE      CODE     ---       #38
      010003B8H   LINE      CODE     ---       #39
      010003D9H   LINE      CODE     ---       #40
      ---         BLOCKEND  ---      ---       LVL=0

      ---         MODULE    ---      ---       COMMON
      00000020H.0 PUBLIC    BIT      BIT       BIT_TMP
      00000017H   PUBLIC    DATA     BYTE      TA_REG_TMP
      00000016H   PUBLIC    DATA     BYTE      SFRS_TMP
      00000015H   PUBLIC    DATA     BYTE      BYTE_TMP
      000000FFH   SFRSYM    DATA     BYTE      P1MF54
      000000E1H   SFRSYM    DATA     BYTE      P5MF32
      000000DBH   SFRSYM    DATA     BYTE      SC1ETURD0
      000000B1H   SFRSYM    DATA     BYTE      P0M1
      000000F1H   SFRSYM    DATA     BYTE      DMA1TSR
      000000DCH   SFRSYM    DATA     BYTE      SC0ETURD1
      000000B2H   SFRSYM    DATA     BYTE      RTCTALMMIN
      000000F4H   SFRSYM    DATA     BYTE      P2MF54
      000000DCH   SFRSYM    DATA     BYTE      SC1ETURD1
      000000B1H   SFRSYM    DATA     BYTE      DMA2TSR
      00000093H   SFRSYM    DATA     BYTE      P6MF32
      000000B3H   SFRSYM    DATA     BYTE      P1M1
      000000B2H   SFRSYM    DATA     BYTE      P0M2
      00000080H   SFRSYM    DATA     BYTE      P0
      000000AAH   SFRSYM    DATA     BYTE      RTCTIMEMIN
      000000E9H   SFRSYM    DATA     BYTE      P3MF54
LX51 LINKER/LOCATER V4.66.97.0                                                        10/05/2022  15:23:47  PAGE 19


      000000A9H   SFRSYM    DATA     BYTE      DMA3TSR
      000000B5H   SFRSYM    DATA     BYTE      P2M1
      000000B4H   SFRSYM    DATA     BYTE      P1M2
      00000090H   SFRSYM    DATA     BYTE      P1
      000000CEH   SFRSYM    DATA     BYTE      PWM0FBS
      000000FCH   SFRSYM    DATA     BYTE      P0MF76
      000000EDH   SFRSYM    DATA     BYTE      P4MF54
      000000C2H   SFRSYM    DATA     BYTE      P3M1
      000000B6H   SFRSYM    DATA     BYTE      P2M2
      000000A0H   SFRSYM    DATA     BYTE      P2
      000000C0H.6 SFRSYM    DATA     BIT       I2CEN0
      000000F1H   SFRSYM    DATA     BYTE      P1MF76
      000000E2H   SFRSYM    DATA     BYTE      P5MF54
      000000C3H   SFRSYM    DATA     BYTE      P3M2
      000000B9H   SFRSYM    DATA     BYTE      P4M1
      000000B0H   SFRSYM    DATA     BYTE      P3
      000000D0H.6 SFRSYM    DATA     BIT       AC
      000000E8H.6 SFRSYM    DATA     BIT       I2CEN1
      000000F5H   SFRSYM    DATA     BYTE      P2MF76
      00000094H   SFRSYM    DATA     BYTE      P6MF54
      000000BDH   SFRSYM    DATA     BYTE      P5M1
      000000BAH   SFRSYM    DATA     BYTE      P4M2
      000000D8H   SFRSYM    DATA     BYTE      P4
      0000009BH   SFRSYM    DATA     BYTE      EIE0
      0000008FH   SFRSYM    DATA     BYTE      WKCON
      00000084H   SFRSYM    DATA     BYTE      RCTRIM0
      000000EAH   SFRSYM    DATA     BYTE      P3MF76
      00000084H   SFRSYM    DATA     BYTE      P6M1
      000000BEH   SFRSYM    DATA     BYTE      P5M2
      000000B1H   SFRSYM    DATA     BYTE      P5
      0000009CH   SFRSYM    DATA     BYTE      EIE1
      00000085H   SFRSYM    DATA     BYTE      RCTRIM1
      000000A8H.7 SFRSYM    DATA     BIT       EA
      000000EEH   SFRSYM    DATA     BYTE      P4MF76
      000000A7H   SFRSYM    DATA     BYTE      P6
      00000085H   SFRSYM    DATA     BYTE      P6M2
      000000E3H   SFRSYM    DATA     BYTE      P5MF76
      000000FBH   SFRSYM    DATA     BYTE      PWM0MEN
      00000095H   SFRSYM    DATA     BYTE      P6MF76
      0000008DH   SFRSYM    DATA     BYTE      PWM1MEN
      000000A0H.5 SFRSYM    DATA     BIT       AIN0
      000000BDH   SFRSYM    DATA     BYTE      PWM2MEN
      000000A0H.4 SFRSYM    DATA     BIT       AIN1
      000000CDH   SFRSYM    DATA     BYTE      PWM3MEN
      000000A0H.3 SFRSYM    DATA     BIT       AIN2
      00000098H.7 SFRSYM    DATA     BIT       FE
      000000A0H.2 SFRSYM    DATA     BIT       AIN3
      000000A0H.1 SFRSYM    DATA     BIT       AIN4
      000000D6H   SFRSYM    DATA     BYTE      SC0CR0
      000000A0H.0 SFRSYM    DATA     BIT       AIN5
      000000A8H.6 SFRSYM    DATA     BIT       EADC
      000000E6H   SFRSYM    DATA     BYTE      SC1CR0
      000000D7H   SFRSYM    DATA     BYTE      SC0CR1
      000000A8H   SFRSYM    DATA     BYTE      IE
      00000096H   SFRSYM    DATA     BYTE      CKSWT
      000000B0H.1 SFRSYM    DATA     BIT       AIN6
      000000E7H   SFRSYM    DATA     BYTE      SC1CR1
      000000EFH   SFRSYM    DATA     BYTE      EIP0
      000000B0H.2 SFRSYM    DATA     BIT       AIN7
      000000FEH   SFRSYM    DATA     BYTE      EIP1
      000000ACH   SFRSYM    DATA     BYTE      EIP2
      000000E4H   SFRSYM    DATA     BYTE      ADCBAH
      000000C7H   SFRSYM    DATA     BYTE      TA
      000000E4H   SFRSYM    DATA     BYTE      BRCTRIM
      000000BDH   SFRSYM    DATA     BYTE      RTCTICK
LX51 LINKER/LOCATER V4.66.97.0                                                        10/05/2022  15:23:47  PAGE 20


      000000C0H.0 SFRSYM    DATA     BIT       I2C0PX
      000000A8H.4 SFRSYM    DATA     BIT       ES
      000000E8H.0 SFRSYM    DATA     BIT       I2CPX1
      000000C0H.5 SFRSYM    DATA     BIT       STA0
      000000B8H.6 SFRSYM    DATA     BIT       PADC
      000000CBH   SFRSYM    DATA     BYTE      ADCBAL
      000000B8H   SFRSYM    DATA     BYTE      IP
      000000E8H.5 SFRSYM    DATA     BIT       STA1
      000000E5H   SFRSYM    DATA     BYTE      ADCCAL
      000000A8H.5 SFRSYM    DATA     BIT       EBOD
      00000098H.0 SFRSYM    DATA     BIT       RI
      000000ADH   SFRSYM    DATA     BYTE      RTCCALDAY
      000000A4H   SFRSYM    DATA     BYTE      RTCFREQADJ0
      000000F8H.7 SFRSYM    DATA     BIT       FE_1
      000000D0H.7 SFRSYM    DATA     BIT       CY
      000000A5H   SFRSYM    DATA     BYTE      RTCFREQADJ1
      0000008AH   SFRSYM    DATA     BYTE      P0DW
      00000098H.1 SFRSYM    DATA     BIT       TI
      0000008BH   SFRSYM    DATA     BYTE      P1DW
      000000EFH   SFRSYM    DATA     BYTE      LDOTRIM
      0000008CH   SFRSYM    DATA     BYTE      P2DW
      000000BAH   SFRSYM    DATA     BYTE      SADEN1
      0000008DH   SFRSYM    DATA     BYTE      P3DW
      000000A1H   SFRSYM    DATA     BYTE      RTCINIT
      0000008EH   SFRSYM    DATA     BYTE      P4DW
      0000008FH   SFRSYM    DATA     BYTE      P5DW
      000000BBH   SFRSYM    DATA     BYTE      SADDR1
      0000008FH   SFRSYM    DATA     BYTE      P6DW
      00000097H   SFRSYM    DATA     BYTE      CKEN
      000000B8H.4 SFRSYM    DATA     BIT       PS
      00000081H   SFRSYM    DATA     BYTE      SP
      000000D0H.2 SFRSYM    DATA     BIT       OV
      000000FAH   SFRSYM    DATA     BYTE      PWM0DTCNT
      000000B8H.5 SFRSYM    DATA     BIT       PBOD
      0000009AH   SFRSYM    DATA     BYTE      DMA0SEED
      0000009AH   SFRSYM    DATA     BYTE      P0SR
      00000092H   SFRSYM    DATA     BYTE      P0UP
      000000C0H.4 SFRSYM    DATA     BIT       STO0
      000000AEH   SFRSYM    DATA     BYTE      RTCCALMON
      0000009BH   SFRSYM    DATA     BYTE      DMA1SEED
      0000009CH   SFRSYM    DATA     BYTE      P1SR
      00000093H   SFRSYM    DATA     BYTE      P1UP
      000000E8H.4 SFRSYM    DATA     BIT       STO1
      000000A2H   SFRSYM    DATA     BYTE      RTCRWEN
      0000009CH   SFRSYM    DATA     BYTE      DMA2SEED
      0000009EH   SFRSYM    DATA     BYTE      P2SR
      00000094H   SFRSYM    DATA     BYTE      P2UP
      000000DAH   SFRSYM    DATA     BYTE      SC0EGT
      0000009DH   SFRSYM    DATA     BYTE      DMA3SEED
      000000DAH   SFRSYM    DATA     BYTE      SC1EGT
      000000ADH   SFRSYM    DATA     BYTE      P3SR
      00000095H   SFRSYM    DATA     BYTE      P3UP
      000000BCH   SFRSYM    DATA     BYTE      P4SR
      00000096H   SFRSYM    DATA     BYTE      P4UP
      000000A3H   SFRSYM    DATA     BYTE      RTCCLKSEL
      000000AEH   SFRSYM    DATA     BYTE      P5SR
      00000097H   SFRSYM    DATA     BYTE      P5UP
      000000F8H.0 SFRSYM    DATA     BIT       RI_1
      00000097H   SFRSYM    DATA     BYTE      P6UP
      0000008EH   SFRSYM    DATA     BYTE      P6SR
      000000AAH   SFRSYM    DATA     BYTE      VRFTRIM
      000000BDH   SFRSYM    DATA     BYTE      I2C0STAT
      00000095H   SFRSYM    DATA     BYTE      DMA0CCNT
      000000F8H.1 SFRSYM    DATA     BIT       TI_1
      000000FCH   SFRSYM    DATA     BYTE      LCDDAT
LX51 LINKER/LOCATER V4.66.97.0                                                        10/05/2022  15:23:47  PAGE 21


      000000B9H   SFRSYM    DATA     BYTE      RTCCLKFMT
      000000BEH   SFRSYM    DATA     BYTE      CWKH
      000000CBH   SFRSYM    DATA     BYTE      RCMP2H
      000000EEH   SFRSYM    DATA     BYTE      DMA1CCNT
      000000B4H   SFRSYM    DATA     BYTE      I2C1STAT
      000000FAH   SFRSYM    DATA     BYTE      LCDCLK
      000000B6H   SFRSYM    DATA     BYTE      DMA2CCNT
      000000CEH   SFRSYM    DATA     BYTE      AINDIDS0
      000000CFH   SFRSYM    DATA     BYTE      ADCMPH
      00000080H.0 SFRSYM    DATA     BIT       P00
      000000F6H   SFRSYM    DATA     BYTE      LCDCPCT0
      000000CEH   SFRSYM    DATA     BYTE      AINDIDS1
      000000AEH   SFRSYM    DATA     BYTE      DMA3CCNT
      00000090H.0 SFRSYM    DATA     BIT       P10
      00000080H.1 SFRSYM    DATA     BIT       P01
      000000EAH   SFRSYM    DATA     BYTE      LCDCPCT1
      00000099H   SFRSYM    DATA     BYTE      SBUF
      00000087H   SFRSYM    DATA     BYTE      PCON
      000000C0H.2 SFRSYM    DATA     BIT       AA0
      000000A0H.0 SFRSYM    DATA     BIT       P20
      00000090H.1 SFRSYM    DATA     BIT       P11
      00000080H.2 SFRSYM    DATA     BIT       P02
      000000CAH   SFRSYM    DATA     BYTE      RCMP2L
      00000086H   SFRSYM    DATA     BYTE      CWKL
      000000E8H.2 SFRSYM    DATA     BIT       AA1
      000000B0H.0 SFRSYM    DATA     BIT       P30
      000000A0H.1 SFRSYM    DATA     BIT       P21
      00000090H.2 SFRSYM    DATA     BIT       P12
      00000080H.3 SFRSYM    DATA     BIT       P03
      000000E3H   SFRSYM    DATA     BYTE      ADCDLY
      000000CEH   SFRSYM    DATA     BYTE      ADCMPL
      000000D8H.0 SFRSYM    DATA     BIT       P40
      000000B0H.1 SFRSYM    DATA     BIT       P31
      000000A0H.2 SFRSYM    DATA     BIT       P22
      00000090H.3 SFRSYM    DATA     BIT       P13
      00000080H.4 SFRSYM    DATA     BIT       P04
      000000F5H   SFRSYM    DATA     BYTE      SPI0DR
      00000098H   SFRSYM    DATA     BYTE      SCON
      000000D8H.1 SFRSYM    DATA     BIT       P41
      000000B0H.2 SFRSYM    DATA     BIT       P32
      000000A0H.3 SFRSYM    DATA     BIT       P23
      00000090H.4 SFRSYM    DATA     BIT       P14
      00000080H.5 SFRSYM    DATA     BIT       P05
      000000B3H   SFRSYM    DATA     BYTE      RTCTALMHR
      000000FCH   SFRSYM    DATA     BYTE      SPI1DR
      00000089H   SFRSYM    DATA     BYTE      TMOD
      00000088H   SFRSYM    DATA     BYTE      TCON
      000000D8H.2 SFRSYM    DATA     BIT       P42
      000000B0H.3 SFRSYM    DATA     BIT       P33
      000000A0H.4 SFRSYM    DATA     BIT       P24
      00000090H.5 SFRSYM    DATA     BIT       P15
      00000080H.6 SFRSYM    DATA     BIT       P06
      000000ABH   SFRSYM    DATA     BYTE      RTCTIMEHR
      000000D8H.3 SFRSYM    DATA     BIT       P43
      000000B0H.4 SFRSYM    DATA     BIT       P34
      000000A0H.5 SFRSYM    DATA     BIT       P25
      00000090H.6 SFRSYM    DATA     BIT       P16
      00000080H.7 SFRSYM    DATA     BIT       P07
      000000FCH   SFRSYM    DATA     BYTE      PWM0MD
      000000D1H   SFRSYM    DATA     BYTE      PWM0CON0
      000000D8H.4 SFRSYM    DATA     BIT       P44
      000000B0H.5 SFRSYM    DATA     BIT       P35
      000000A0H.6 SFRSYM    DATA     BIT       P26
      00000090H.7 SFRSYM    DATA     BIT       P17
      0000009CH   SFRSYM    DATA     BYTE      PWM1CON0
LX51 LINKER/LOCATER V4.66.97.0                                                        10/05/2022  15:23:47  PAGE 22


      0000008CH   SFRSYM    DATA     BYTE      PWM1MD
      000000DFH   SFRSYM    DATA     BYTE      PWM0CON1
      000000D8H.5 SFRSYM    DATA     BIT       P45
      000000B0H.6 SFRSYM    DATA     BIT       P36
      000000A0H.7 SFRSYM    DATA     BIT       P27
      000000C4H   SFRSYM    DATA     BYTE      PWM2CON0
      000000BCH   SFRSYM    DATA     BYTE      PWM2MD
      0000009DH   SFRSYM    DATA     BYTE      PWM1CON1
      000000D8H.6 SFRSYM    DATA     BIT       P46
      000000B0H.7 SFRSYM    DATA     BIT       P37
      000000D4H   SFRSYM    DATA     BYTE      PWM3CON0
      000000CCH   SFRSYM    DATA     BYTE      PWM3MD
      000000C5H   SFRSYM    DATA     BYTE      PWM2CON1
      000000D8H.7 SFRSYM    DATA     BIT       P47
      000000D5H   SFRSYM    DATA     BYTE      PWM3CON1
      000000E5H   SFRSYM    DATA     BYTE      C0H
      000000B7H   SFRSYM    DATA     BYTE      RTCCALMYEAR
      000000E7H   SFRSYM    DATA     BYTE      C1H
      000000C1H   SFRSYM    DATA     BYTE      I2C0ADDR0
      000000B4H   SFRSYM    DATA     BYTE      RTCTALMHZ
      000000BFH   SFRSYM    DATA     BYTE      RWKH
      000000A1H   SFRSYM    DATA     BYTE      I2C0ADDR1
      000000EEH   SFRSYM    DATA     BYTE      C2H
      000000B2H   SFRSYM    DATA     BYTE      I2C1ADDR0
      0000009FH   SFRSYM    DATA     BYTE      CHPCON
      00000088H.1 SFRSYM    DATA     BIT       IE0
      000000F5H   SFRSYM    DATA     BYTE      LCDCPALCT0
      000000A4H   SFRSYM    DATA     BYTE      I2C1ADDR1
      000000A2H   SFRSYM    DATA     BYTE      I2C0ADDR2
      000000D1H   SFRSYM    DATA     BYTE      PWM0PH
      00000088H.3 SFRSYM    DATA     BIT       IE1
      000000E9H   SFRSYM    DATA     BYTE      LCDCPALCT1
      000000A5H   SFRSYM    DATA     BYTE      I2C1ADDR2
      000000A3H   SFRSYM    DATA     BYTE      I2C0ADDR3
      00000086H   SFRSYM    DATA     BYTE      PWM1PH
      000000E4H   SFRSYM    DATA     BYTE      C0L
      00000091H   SFRSYM    DATA     BYTE      SFRS
      000000B9H   SFRSYM    DATA     BYTE      PWM2PH
      000000A6H   SFRSYM    DATA     BYTE      I2C1ADDR3
      000000E6H   SFRSYM    DATA     BYTE      C1L
      000000C8H.0 SFRSYM    DATA     BIT       CM_RL2
      000000BCH   SFRSYM    DATA     BYTE      RTCLEAPYEAR
      000000C9H   SFRSYM    DATA     BYTE      PWM3PH
      000000EDH   SFRSYM    DATA     BYTE      C2L
      000000F0H   SFRSYM    DATA     BYTE      B
      000000DFH   SFRSYM    DATA     BYTE      SC0TSR
      00000086H   SFRSYM    DATA     BYTE      RWKL
      000000DFH   SFRSYM    DATA     BYTE      SC1TSR
      000000D9H   SFRSYM    DATA     BYTE      PWM0PL
      00000099H   SFRSYM    DATA     BYTE      PWM1PL
      000000F4H   SFRSYM    DATA     BYTE      SPI0SR
      000000C1H   SFRSYM    DATA     BYTE      PWM2PL
      000000D6H   SFRSYM    DATA     BYTE      PWM0NP
      000000FBH   SFRSYM    DATA     BYTE      SPI1SR
      000000A5H   SFRSYM    DATA     BYTE      IAPUEN
      00000099H   SFRSYM    DATA     BYTE      WDCONH
      000000D1H   SFRSYM    DATA     BYTE      PWM3PL
      000000E0H   SFRSYM    DATA     BYTE      ACC
      000000D4H   SFRSYM    DATA     BYTE      ACMPSR
      000000A8H.1 SFRSYM    DATA     BIT       ET0
      000000BCH   SFRSYM    DATA     BYTE      I2C0DAT
      000000A4H   SFRSYM    DATA     BYTE      IAPTRG
      00000092H   SFRSYM    DATA     BYTE      DMA0CR0
      000000A8H.3 SFRSYM    DATA     BIT       ET1
      00000088H.5 SFRSYM    DATA     BIT       TF0
LX51 LINKER/LOCATER V4.66.97.0                                                        10/05/2022  15:23:47  PAGE 23


      0000008AH   SFRSYM    DATA     BYTE      DMA0CR1
      000000EBH   SFRSYM    DATA     BYTE      DMA1CR0
      000000BEH   SFRSYM    DATA     BYTE      I2C0CLK
      000000B3H   SFRSYM    DATA     BYTE      I2C1DAT
      00000088H.7 SFRSYM    DATA     BIT       TF1
      000000FBH   SFRSYM    DATA     BYTE      LCDPTR
      0000008BH   SFRSYM    DATA     BYTE      DMA1CR1
      000000B3H   SFRSYM    DATA     BYTE      DMA2CR0
      000000B5H   SFRSYM    DATA     BYTE      I2C1CLK
      000000C8H.7 SFRSYM    DATA     BIT       TF2
      000000C0H.3 SFRSYM    DATA     BIT       SI0
      00000098H.2 SFRSYM    DATA     BIT       RB8
      0000008CH   SFRSYM    DATA     BYTE      DMA2CR1
      000000ABH   SFRSYM    DATA     BYTE      DMA3CR0
      0000008CH   SFRSYM    DATA     BYTE      TH0
      000000E8H.3 SFRSYM    DATA     BIT       SI1
      000000A8H.0 SFRSYM    DATA     BIT       EX0
      00000088H.0 SFRSYM    DATA     BIT       IT0
      0000008DH   SFRSYM    DATA     BYTE      DMA3CR1
      000000C6H   SFRSYM    DATA     BYTE      RH3
      0000008DH   SFRSYM    DATA     BYTE      TH1
      000000A8H.2 SFRSYM    DATA     BIT       EX1
      00000098H.3 SFRSYM    DATA     BIT       TB8
      00000088H.2 SFRSYM    DATA     BIT       IT1
      000000FDH   SFRSYM    DATA     BYTE      LCDPWR
      000000CDH   SFRSYM    DATA     BYTE      TH2
      000000D0H.0 SFRSYM    DATA     BIT       P
      000000F6H   SFRSYM    DATA     BYTE      DMA0BAH
      00000098H.7 SFRSYM    DATA     BIT       SM0
      000000A9H   SFRSYM    DATA     BYTE      VRFCON
      000000FDH   SFRSYM    DATA     BYTE      DMA1BAH
      000000C0H   SFRSYM    DATA     BYTE      I2C0CON
      0000008AH   SFRSYM    DATA     BYTE      TL0
      00000098H.6 SFRSYM    DATA     BIT       SM1
      000000B2H   SFRSYM    DATA     BYTE      DMA2BAH
      000000E8H   SFRSYM    DATA     BYTE      I2C1CON
      000000C5H   SFRSYM    DATA     BYTE      RL3
      0000008BH   SFRSYM    DATA     BYTE      TL1
      00000098H.5 SFRSYM    DATA     BIT       SM2
      000000A7H   SFRSYM    DATA     BYTE      RTCINTSTS
      000000AAH   SFRSYM    DATA     BYTE      DMA3BAH
      000000F9H   SFRSYM    DATA     BYTE      PWM0DTEN
      000000CCH   SFRSYM    DATA     BYTE      TL2
      000000C6H   SFRSYM    DATA     BYTE      PORDIS
      00000099H   SFRSYM    DATA     BYTE      P0S
      000000B8H.1 SFRSYM    DATA     BIT       PT0
      0000009BH   SFRSYM    DATA     BYTE      P1S
      000000D0H.3 SFRSYM    DATA     BIT       RS0
      000000B8H.3 SFRSYM    DATA     BIT       PT1
      000000B7H   SFRSYM    DATA     BYTE      PWM0INTC
      0000009DH   SFRSYM    DATA     BYTE      P2S
      000000DDH   SFRSYM    DATA     BYTE      SC0IE
      000000D0H.4 SFRSYM    DATA     BIT       RS1
      00000088H.4 SFRSYM    DATA     BIT       TR0
      000000DDH   SFRSYM    DATA     BYTE      SC1IE
      0000009EH   SFRSYM    DATA     BYTE      PWM1INTC
      000000FFH   SFRSYM    DATA     BYTE      LVRDIS
      000000ACH   SFRSYM    DATA     BYTE      P3S
      000000BFH   SFRSYM    DATA     BYTE      I2C0TOC
      00000088H.6 SFRSYM    DATA     BIT       TR1
      000000C6H   SFRSYM    DATA     BYTE      PWM2INTC
      000000BBH   SFRSYM    DATA     BYTE      P4S
      000000F7H   SFRSYM    DATA     BYTE      EIPH0
      000000D5H   SFRSYM    DATA     BYTE      ACMPVREF
      000000B6H   SFRSYM    DATA     BYTE      I2C1TOC
LX51 LINKER/LOCATER V4.66.97.0                                                        10/05/2022  15:23:47  PAGE 24


      000000C8H.2 SFRSYM    DATA     BIT       TR2
      000000B8H.0 SFRSYM    DATA     BIT       PX0
      000000D6H   SFRSYM    DATA     BYTE      PWM3INTC
      000000BFH   SFRSYM    DATA     BYTE      P5S
      000000FFH   SFRSYM    DATA     BYTE      EIPH1
      000000B8H.2 SFRSYM    DATA     BIT       PX1
      000000CFH   SFRSYM    DATA     BYTE      I2C0ADDRM
      00000096H   SFRSYM    DATA     BYTE      P6S
      000000ADH   SFRSYM    DATA     BYTE      EIPH2
      000000D7H   SFRSYM    DATA     BYTE      I2C1ADDRM
      00000085H   SFRSYM    DATA     BYTE      XLTCON
      000000E6H   SFRSYM    DATA     BYTE      ADCCN
      000000A1H   SFRSYM    DATA     BYTE      ADCCON0
      000000F1H   SFRSYM    DATA     BYTE      LCDCPUMP
      000000BFH   SFRSYM    DATA     BYTE      RTCCAMSK
      000000E1H   SFRSYM    DATA     BYTE      ADCCON1
      00000092H   SFRSYM    DATA     BYTE      DMA0CRC
      000000E2H   SFRSYM    DATA     BYTE      ADCCON2
      00000083H   SFRSYM    DATA     BYTE      DPH
      000000F8H.2 SFRSYM    DATA     BIT       RB8_1
      00000093H   SFRSYM    DATA     BYTE      DMA1CRC
      000000D9H   SFRSYM    DATA     BYTE      SC0DR
      00000094H   SFRSYM    DATA     BYTE      DMA2CRC
      000000D9H   SFRSYM    DATA     BYTE      SC1DR
      00000093H   SFRSYM    DATA     BYTE      DMA0MAL
      000000F8H.3 SFRSYM    DATA     BIT       TB8_1
      00000095H   SFRSYM    DATA     BYTE      DMA3CRC
      000000ECH   SFRSYM    DATA     BYTE      DMA1MAL
      000000CAH   SFRSYM    DATA     BYTE      PIF
      000000B4H   SFRSYM    DATA     BYTE      DMA2MAL
      00000082H   SFRSYM    DATA     BYTE      DPL
      000000F8H.7 SFRSYM    DATA     BIT       SM0_1
      000000ACH   SFRSYM    DATA     BYTE      DMA3MAL
      000000D2H   SFRSYM    DATA     BYTE      PWM0C0H
      000000B7H   SFRSYM    DATA     BYTE      IPH
      000000F8H.6 SFRSYM    DATA     BIT       SM1_1
      000000FEH   SFRSYM    DATA     BYTE      LCDBL
      0000008AH   SFRSYM    DATA     BYTE      PWM1C0H
      000000D3H   SFRSYM    DATA     BYTE      PWM0C1H
      0000009AH   SFRSYM    DATA     BYTE      SBUF1
      000000F8H.5 SFRSYM    DATA     BIT       SM2_1
      000000BAH   SFRSYM    DATA     BYTE      PWM2C0H
      0000008BH   SFRSYM    DATA     BYTE      PWM1C1H
      000000D4H   SFRSYM    DATA     BYTE      PWM0C2H
      000000F3H   SFRSYM    DATA     BYTE      SPI0CR0
      000000DEH   SFRSYM    DATA     BYTE      SC0IS
      000000C3H   SFRSYM    DATA     BYTE      ADCRH
      000000DEH   SFRSYM    DATA     BYTE      SC1IS
      000000CAH   SFRSYM    DATA     BYTE      PWM3C0H
      000000BBH   SFRSYM    DATA     BYTE      PWM2C1H
      000000F3H   SFRSYM    DATA     BYTE      SPI0CR1
      000000D5H   SFRSYM    DATA     BYTE      PWM0C3H
      000000F9H   SFRSYM    DATA     BYTE      SPI1CR0
      000000A7H   SFRSYM    DATA     BYTE      IAPAH
      00000098H.4 SFRSYM    DATA     BIT       REN
      000000F9H   SFRSYM    DATA     BYTE      LCDCON0
      000000CBH   SFRSYM    DATA     BYTE      PWM3C1H
      000000DAH   SFRSYM    DATA     BYTE      PWM0C0L
      000000C4H   SFRSYM    DATA     BYTE      PWM0C4H
      000000FAH   SFRSYM    DATA     BYTE      SPI1CR1
      000000F8H   SFRSYM    DATA     BYTE      S1CON
      000000AEH   SFRSYM    DATA     BYTE      IAPFD
      000000F4H   SFRSYM    DATA     BYTE      LCDCON1
      0000009AH   SFRSYM    DATA     BYTE      PWM1C0L
      000000E1H   SFRSYM    DATA     BYTE      CAPCON0
LX51 LINKER/LOCATER V4.66.97.0                                                        10/05/2022  15:23:47  PAGE 25


      000000DBH   SFRSYM    DATA     BYTE      PWM0C1L
      000000C5H   SFRSYM    DATA     BYTE      PWM0C5H
      000000C2H   SFRSYM    DATA     BYTE      PWM2C0L
      0000009BH   SFRSYM    DATA     BYTE      PWM1C1L
      000000E2H   SFRSYM    DATA     BYTE      CAPCON1
      000000DCH   SFRSYM    DATA     BYTE      PWM0C2L
      000000C9H   SFRSYM    DATA     BYTE      T2MOD
      000000C8H   SFRSYM    DATA     BYTE      T2CON
      000000C2H   SFRSYM    DATA     BYTE      ADCRL
      000000A3H   SFRSYM    DATA     BYTE      BODCON0
      000000B5H   SFRSYM    DATA     BYTE      RTCCALMDAY
      000000D2H   SFRSYM    DATA     BYTE      PWM3C0L
      000000C3H   SFRSYM    DATA     BYTE      PWM2C1L
      000000E3H   SFRSYM    DATA     BYTE      CAPCON2
      000000DDH   SFRSYM    DATA     BYTE      PWM0C3L
      000000D2H   SFRSYM    DATA     BYTE      ACMPCR0
      000000C4H   SFRSYM    DATA     BYTE      T3CON
      000000ABH   SFRSYM    DATA     BYTE      BODCON1
      000000A6H   SFRSYM    DATA     BYTE      IAPAL
      000000D3H   SFRSYM    DATA     BYTE      PWM3C1L
      000000CCH   SFRSYM    DATA     BYTE      PWM0C4L
      00000084H   SFRSYM    DATA     BYTE      LIRCTRIM
      000000D3H   SFRSYM    DATA     BYTE      ACMPCR1
      00000094H   SFRSYM    DATA     BYTE      DMA0CNT
      000000A6H   SFRSYM    DATA     BYTE      RTCINTEN
      000000CDH   SFRSYM    DATA     BYTE      PWM0C5L
      000000ABH   SFRSYM    DATA     BYTE      ACMPCR2
      000000EDH   SFRSYM    DATA     BYTE      DMA1CNT
      000000E5H   SFRSYM    DATA     BYTE      ADCSN
      000000B5H   SFRSYM    DATA     BYTE      DMA2CNT
      000000BEH   SFRSYM    DATA     BYTE      RTCTAMSK
      000000ADH   SFRSYM    DATA     BYTE      DMA3CNT
      000000B9H   SFRSYM    DATA     BYTE      SADEN
      000000AFH   SFRSYM    DATA     BYTE      IAPCN
      000000A1H   SFRSYM    DATA     BYTE      PIPS0
      000000AFH   SFRSYM    DATA     BYTE      RTCCALYEAR
      000000A2H   SFRSYM    DATA     BYTE      PIPS1
      000000E7H   SFRSYM    DATA     BYTE      ADCSR
      000000A3H   SFRSYM    DATA     BYTE      PIPS2
      000000A9H   SFRSYM    DATA     BYTE      SADDR
      0000008EH   SFRSYM    DATA     BYTE      CKCON
      000000FDH   SFRSYM    DATA     BYTE      LVRFLTEN
      000000A4H   SFRSYM    DATA     BYTE      PIPS3
      000000A5H   SFRSYM    DATA     BYTE      PIPS4
      000000EAH   SFRSYM    DATA     BYTE      MTM0DAL
      000000A2H   SFRSYM    DATA     BYTE      AUXR0
      000000D7H   SFRSYM    DATA     BYTE      PWM0FBD
      000000C9H   SFRSYM    DATA     BYTE      AUXR1
      000000C1H   SFRSYM    DATA     BYTE      CKDIV
      000000A6H   SFRSYM    DATA     BYTE      PIPS5
      000000F2H   SFRSYM    DATA     BYTE      MTM1DAL
      000000B7H   SFRSYM    DATA     BYTE      MTM2DAL
      000000A7H   SFRSYM    DATA     BYTE      PIPS6
      000000CFH   SFRSYM    DATA     BYTE      AUXR3
      000000B6H   SFRSYM    DATA     BYTE      RTCCALMMON
      000000AFH   SFRSYM    DATA     BYTE      MTM3DAL
      000000AFH   SFRSYM    DATA     BYTE      PIPS7
      000000D0H.5 SFRSYM    DATA     BIT       F0
      000000F9H   SFRSYM    DATA     BYTE      P0MF10
      000000F8H.4 SFRSYM    DATA     BIT       REN_1
      000000B1H   SFRSYM    DATA     BYTE      RTCTALMSEC
      000000FDH   SFRSYM    DATA     BYTE      P1MF10
      000000BBH   SFRSYM    DATA     BYTE      RTCWEEKDAY
      000000A9H   SFRSYM    DATA     BYTE      RTCTIMESEC
      000000F2H   SFRSYM    DATA     BYTE      P2MF10
LX51 LINKER/LOCATER V4.66.97.0                                                        10/05/2022  15:23:47  PAGE 26


      0000009DH   SFRSYM    DATA     BYTE      RSR
      000000F6H   SFRSYM    DATA     BYTE      P3MF10
      000000FAH   SFRSYM    DATA     BYTE      P0MF32
      000000EBH   SFRSYM    DATA     BYTE      P4MF10
      000000FFH   SFRSYM    DATA     BYTE      LCDMODE
      000000FEH   SFRSYM    DATA     BYTE      P1MF32
      000000EFH   SFRSYM    DATA     BYTE      P5MF10
      000000E9H   SFRSYM    DATA     BYTE      PICON
      000000D0H   SFRSYM    DATA     BYTE      PSW
      000000F3H   SFRSYM    DATA     BYTE      P2MF32
      00000092H   SFRSYM    DATA     BYTE      P6MF10
      000000EAH   SFRSYM    DATA     BYTE      PINEN
      000000F7H   SFRSYM    DATA     BYTE      P3MF32
      000000AAH   SFRSYM    DATA     BYTE      WDCON
      000000FBH   SFRSYM    DATA     BYTE      P0MF54
      000000ECH   SFRSYM    DATA     BYTE      P4MF32
      000000EBH   SFRSYM    DATA     BYTE      PIPEN
      000000E9H   SFRSYM    DATA     BYTE      DMA0TSR
      000000DBH   SFRSYM    DATA     BYTE      SC0ETURD0
      00000006H   SYMBOL    DATA     ---       u16_addr
      00000007H   SYMBOL    DATA     BYTE      rdata
      00000007H   SYMBOL    DATA     BYTE      u8IntStatus

      ---         MODULE    ---      ---       DELAY
      00000008H   PUBLIC    DATA     BYTE      ?_Timer2_Delay?BYTE
      01000160H   PUBLIC    CODE     ---       _Timer2_Delay
      000000FFH   SFRSYM    DATA     BYTE      P1MF54
      000000E1H   SFRSYM    DATA     BYTE      P5MF32
      000000DBH   SFRSYM    DATA     BYTE      SC1ETURD0
      000000B1H   SFRSYM    DATA     BYTE      P0M1
      000000F1H   SFRSYM    DATA     BYTE      DMA1TSR
      000000DCH   SFRSYM    DATA     BYTE      SC0ETURD1
      000000B2H   SFRSYM    DATA     BYTE      RTCTALMMIN
      000000F4H   SFRSYM    DATA     BYTE      P2MF54
      000000DCH   SFRSYM    DATA     BYTE      SC1ETURD1
      000000B1H   SFRSYM    DATA     BYTE      DMA2TSR
      00000093H   SFRSYM    DATA     BYTE      P6MF32
      000000B3H   SFRSYM    DATA     BYTE      P1M1
      000000B2H   SFRSYM    DATA     BYTE      P0M2
      00000080H   SFRSYM    DATA     BYTE      P0
      000000AAH   SFRSYM    DATA     BYTE      RTCTIMEMIN
      000000E9H   SFRSYM    DATA     BYTE      P3MF54
      000000A9H   SFRSYM    DATA     BYTE      DMA3TSR
      000000B5H   SFRSYM    DATA     BYTE      P2M1
      000000B4H   SFRSYM    DATA     BYTE      P1M2
      00000090H   SFRSYM    DATA     BYTE      P1
      000000CEH   SFRSYM    DATA     BYTE      PWM0FBS
      000000FCH   SFRSYM    DATA     BYTE      P0MF76
      000000EDH   SFRSYM    DATA     BYTE      P4MF54
      000000C2H   SFRSYM    DATA     BYTE      P3M1
      000000B6H   SFRSYM    DATA     BYTE      P2M2
      000000A0H   SFRSYM    DATA     BYTE      P2
      000000C0H.6 SFRSYM    DATA     BIT       I2CEN0
      000000F1H   SFRSYM    DATA     BYTE      P1MF76
      000000E2H   SFRSYM    DATA     BYTE      P5MF54
      000000C3H   SFRSYM    DATA     BYTE      P3M2
      000000B9H   SFRSYM    DATA     BYTE      P4M1
      000000B0H   SFRSYM    DATA     BYTE      P3
      000000D0H.6 SFRSYM    DATA     BIT       AC
      000000E8H.6 SFRSYM    DATA     BIT       I2CEN1
      000000F5H   SFRSYM    DATA     BYTE      P2MF76
      00000094H   SFRSYM    DATA     BYTE      P6MF54
      000000BDH   SFRSYM    DATA     BYTE      P5M1
      000000BAH   SFRSYM    DATA     BYTE      P4M2
      000000D8H   SFRSYM    DATA     BYTE      P4
LX51 LINKER/LOCATER V4.66.97.0                                                        10/05/2022  15:23:47  PAGE 27


      0000009BH   SFRSYM    DATA     BYTE      EIE0
      0000008FH   SFRSYM    DATA     BYTE      WKCON
      00000084H   SFRSYM    DATA     BYTE      RCTRIM0
      000000EAH   SFRSYM    DATA     BYTE      P3MF76
      00000084H   SFRSYM    DATA     BYTE      P6M1
      000000BEH   SFRSYM    DATA     BYTE      P5M2
      000000B1H   SFRSYM    DATA     BYTE      P5
      0000009CH   SFRSYM    DATA     BYTE      EIE1
      00000085H   SFRSYM    DATA     BYTE      RCTRIM1
      000000A8H.7 SFRSYM    DATA     BIT       EA
      000000EEH   SFRSYM    DATA     BYTE      P4MF76
      000000A7H   SFRSYM    DATA     BYTE      P6
      00000085H   SFRSYM    DATA     BYTE      P6M2
      000000E3H   SFRSYM    DATA     BYTE      P5MF76
      000000FBH   SFRSYM    DATA     BYTE      PWM0MEN
      00000095H   SFRSYM    DATA     BYTE      P6MF76
      0000008DH   SFRSYM    DATA     BYTE      PWM1MEN
      000000A0H.5 SFRSYM    DATA     BIT       AIN0
      000000BDH   SFRSYM    DATA     BYTE      PWM2MEN
      000000A0H.4 SFRSYM    DATA     BIT       AIN1
      000000CDH   SFRSYM    DATA     BYTE      PWM3MEN
      000000A0H.3 SFRSYM    DATA     BIT       AIN2
      00000098H.7 SFRSYM    DATA     BIT       FE
      000000A0H.2 SFRSYM    DATA     BIT       AIN3
      000000A0H.1 SFRSYM    DATA     BIT       AIN4
      000000D6H   SFRSYM    DATA     BYTE      SC0CR0
      000000A0H.0 SFRSYM    DATA     BIT       AIN5
      000000A8H.6 SFRSYM    DATA     BIT       EADC
      000000E6H   SFRSYM    DATA     BYTE      SC1CR0
      000000D7H   SFRSYM    DATA     BYTE      SC0CR1
      000000A8H   SFRSYM    DATA     BYTE      IE
      00000096H   SFRSYM    DATA     BYTE      CKSWT
      000000B0H.1 SFRSYM    DATA     BIT       AIN6
      000000E7H   SFRSYM    DATA     BYTE      SC1CR1
      000000EFH   SFRSYM    DATA     BYTE      EIP0
      000000B0H.2 SFRSYM    DATA     BIT       AIN7
      000000FEH   SFRSYM    DATA     BYTE      EIP1
      000000ACH   SFRSYM    DATA     BYTE      EIP2
      000000E4H   SFRSYM    DATA     BYTE      ADCBAH
      000000C7H   SFRSYM    DATA     BYTE      TA
      000000E4H   SFRSYM    DATA     BYTE      BRCTRIM
      000000BDH   SFRSYM    DATA     BYTE      RTCTICK
      000000C0H.0 SFRSYM    DATA     BIT       I2C0PX
      000000A8H.4 SFRSYM    DATA     BIT       ES
      000000E8H.0 SFRSYM    DATA     BIT       I2CPX1
      000000C0H.5 SFRSYM    DATA     BIT       STA0
      000000B8H.6 SFRSYM    DATA     BIT       PADC
      000000CBH   SFRSYM    DATA     BYTE      ADCBAL
      000000B8H   SFRSYM    DATA     BYTE      IP
      000000E8H.5 SFRSYM    DATA     BIT       STA1
      000000E5H   SFRSYM    DATA     BYTE      ADCCAL
      000000A8H.5 SFRSYM    DATA     BIT       EBOD
      00000098H.0 SFRSYM    DATA     BIT       RI
      000000ADH   SFRSYM    DATA     BYTE      RTCCALDAY
      000000A4H   SFRSYM    DATA     BYTE      RTCFREQADJ0
      000000F8H.7 SFRSYM    DATA     BIT       FE_1
      000000D0H.7 SFRSYM    DATA     BIT       CY
      000000A5H   SFRSYM    DATA     BYTE      RTCFREQADJ1
      0000008AH   SFRSYM    DATA     BYTE      P0DW
      00000098H.1 SFRSYM    DATA     BIT       TI
      0000008BH   SFRSYM    DATA     BYTE      P1DW
      000000EFH   SFRSYM    DATA     BYTE      LDOTRIM
      0000008CH   SFRSYM    DATA     BYTE      P2DW
      000000BAH   SFRSYM    DATA     BYTE      SADEN1
      0000008DH   SFRSYM    DATA     BYTE      P3DW
LX51 LINKER/LOCATER V4.66.97.0                                                        10/05/2022  15:23:47  PAGE 28


      000000A1H   SFRSYM    DATA     BYTE      RTCINIT
      0000008EH   SFRSYM    DATA     BYTE      P4DW
      0000008FH   SFRSYM    DATA     BYTE      P5DW
      000000BBH   SFRSYM    DATA     BYTE      SADDR1
      0000008FH   SFRSYM    DATA     BYTE      P6DW
      00000097H   SFRSYM    DATA     BYTE      CKEN
      000000B8H.4 SFRSYM    DATA     BIT       PS
      00000081H   SFRSYM    DATA     BYTE      SP
      000000D0H.2 SFRSYM    DATA     BIT       OV
      000000FAH   SFRSYM    DATA     BYTE      PWM0DTCNT
      000000B8H.5 SFRSYM    DATA     BIT       PBOD
      0000009AH   SFRSYM    DATA     BYTE      DMA0SEED
      0000009AH   SFRSYM    DATA     BYTE      P0SR
      00000092H   SFRSYM    DATA     BYTE      P0UP
      000000C0H.4 SFRSYM    DATA     BIT       STO0
      000000AEH   SFRSYM    DATA     BYTE      RTCCALMON
      0000009BH   SFRSYM    DATA     BYTE      DMA1SEED
      0000009CH   SFRSYM    DATA     BYTE      P1SR
      00000093H   SFRSYM    DATA     BYTE      P1UP
      000000E8H.4 SFRSYM    DATA     BIT       STO1
      000000A2H   SFRSYM    DATA     BYTE      RTCRWEN
      0000009CH   SFRSYM    DATA     BYTE      DMA2SEED
      0000009EH   SFRSYM    DATA     BYTE      P2SR
      00000094H   SFRSYM    DATA     BYTE      P2UP
      000000DAH   SFRSYM    DATA     BYTE      SC0EGT
      0000009DH   SFRSYM    DATA     BYTE      DMA3SEED
      000000DAH   SFRSYM    DATA     BYTE      SC1EGT
      000000ADH   SFRSYM    DATA     BYTE      P3SR
      00000095H   SFRSYM    DATA     BYTE      P3UP
      000000BCH   SFRSYM    DATA     BYTE      P4SR
      00000096H   SFRSYM    DATA     BYTE      P4UP
      000000A3H   SFRSYM    DATA     BYTE      RTCCLKSEL
      000000AEH   SFRSYM    DATA     BYTE      P5SR
      00000097H   SFRSYM    DATA     BYTE      P5UP
      000000F8H.0 SFRSYM    DATA     BIT       RI_1
      00000097H   SFRSYM    DATA     BYTE      P6UP
      0000008EH   SFRSYM    DATA     BYTE      P6SR
      000000AAH   SFRSYM    DATA     BYTE      VRFTRIM
      000000BDH   SFRSYM    DATA     BYTE      I2C0STAT
      00000095H   SFRSYM    DATA     BYTE      DMA0CCNT
      000000F8H.1 SFRSYM    DATA     BIT       TI_1
      000000FCH   SFRSYM    DATA     BYTE      LCDDAT
      000000B9H   SFRSYM    DATA     BYTE      RTCCLKFMT
      000000BEH   SFRSYM    DATA     BYTE      CWKH
      000000CBH   SFRSYM    DATA     BYTE      RCMP2H
      000000EEH   SFRSYM    DATA     BYTE      DMA1CCNT
      000000B4H   SFRSYM    DATA     BYTE      I2C1STAT
      000000FAH   SFRSYM    DATA     BYTE      LCDCLK
      000000B6H   SFRSYM    DATA     BYTE      DMA2CCNT
      000000CEH   SFRSYM    DATA     BYTE      AINDIDS0
      000000CFH   SFRSYM    DATA     BYTE      ADCMPH
      00000080H.0 SFRSYM    DATA     BIT       P00
      000000F6H   SFRSYM    DATA     BYTE      LCDCPCT0
      000000CEH   SFRSYM    DATA     BYTE      AINDIDS1
      000000AEH   SFRSYM    DATA     BYTE      DMA3CCNT
      00000090H.0 SFRSYM    DATA     BIT       P10
      00000080H.1 SFRSYM    DATA     BIT       P01
      000000EAH   SFRSYM    DATA     BYTE      LCDCPCT1
      00000099H   SFRSYM    DATA     BYTE      SBUF
      00000087H   SFRSYM    DATA     BYTE      PCON
      000000C0H.2 SFRSYM    DATA     BIT       AA0
      000000A0H.0 SFRSYM    DATA     BIT       P20
      00000090H.1 SFRSYM    DATA     BIT       P11
      00000080H.2 SFRSYM    DATA     BIT       P02
      000000CAH   SFRSYM    DATA     BYTE      RCMP2L
LX51 LINKER/LOCATER V4.66.97.0                                                        10/05/2022  15:23:47  PAGE 29


      00000086H   SFRSYM    DATA     BYTE      CWKL
      000000E8H.2 SFRSYM    DATA     BIT       AA1
      000000B0H.0 SFRSYM    DATA     BIT       P30
      000000A0H.1 SFRSYM    DATA     BIT       P21
      00000090H.2 SFRSYM    DATA     BIT       P12
      00000080H.3 SFRSYM    DATA     BIT       P03
      000000E3H   SFRSYM    DATA     BYTE      ADCDLY
      000000CEH   SFRSYM    DATA     BYTE      ADCMPL
      000000D8H.0 SFRSYM    DATA     BIT       P40
      000000B0H.1 SFRSYM    DATA     BIT       P31
      000000A0H.2 SFRSYM    DATA     BIT       P22
      00000090H.3 SFRSYM    DATA     BIT       P13
      00000080H.4 SFRSYM    DATA     BIT       P04
      000000F5H   SFRSYM    DATA     BYTE      SPI0DR
      00000098H   SFRSYM    DATA     BYTE      SCON
      000000D8H.1 SFRSYM    DATA     BIT       P41
      000000B0H.2 SFRSYM    DATA     BIT       P32
      000000A0H.3 SFRSYM    DATA     BIT       P23
      00000090H.4 SFRSYM    DATA     BIT       P14
      00000080H.5 SFRSYM    DATA     BIT       P05
      000000B3H   SFRSYM    DATA     BYTE      RTCTALMHR
      000000FCH   SFRSYM    DATA     BYTE      SPI1DR
      00000089H   SFRSYM    DATA     BYTE      TMOD
      00000088H   SFRSYM    DATA     BYTE      TCON
      000000D8H.2 SFRSYM    DATA     BIT       P42
      000000B0H.3 SFRSYM    DATA     BIT       P33
      000000A0H.4 SFRSYM    DATA     BIT       P24
      00000090H.5 SFRSYM    DATA     BIT       P15
      00000080H.6 SFRSYM    DATA     BIT       P06
      000000ABH   SFRSYM    DATA     BYTE      RTCTIMEHR
      000000D8H.3 SFRSYM    DATA     BIT       P43
      000000B0H.4 SFRSYM    DATA     BIT       P34
      000000A0H.5 SFRSYM    DATA     BIT       P25
      00000090H.6 SFRSYM    DATA     BIT       P16
      00000080H.7 SFRSYM    DATA     BIT       P07
      000000FCH   SFRSYM    DATA     BYTE      PWM0MD
      000000D1H   SFRSYM    DATA     BYTE      PWM0CON0
      000000D8H.4 SFRSYM    DATA     BIT       P44
      000000B0H.5 SFRSYM    DATA     BIT       P35
      000000A0H.6 SFRSYM    DATA     BIT       P26
      00000090H.7 SFRSYM    DATA     BIT       P17
      0000009CH   SFRSYM    DATA     BYTE      PWM1CON0
      0000008CH   SFRSYM    DATA     BYTE      PWM1MD
      000000DFH   SFRSYM    DATA     BYTE      PWM0CON1
      000000D8H.5 SFRSYM    DATA     BIT       P45
      000000B0H.6 SFRSYM    DATA     BIT       P36
      000000A0H.7 SFRSYM    DATA     BIT       P27
      000000C4H   SFRSYM    DATA     BYTE      PWM2CON0
      000000BCH   SFRSYM    DATA     BYTE      PWM2MD
      0000009DH   SFRSYM    DATA     BYTE      PWM1CON1
      000000D8H.6 SFRSYM    DATA     BIT       P46
      000000B0H.7 SFRSYM    DATA     BIT       P37
      000000D4H   SFRSYM    DATA     BYTE      PWM3CON0
      000000CCH   SFRSYM    DATA     BYTE      PWM3MD
      000000C5H   SFRSYM    DATA     BYTE      PWM2CON1
      000000D8H.7 SFRSYM    DATA     BIT       P47
      000000D5H   SFRSYM    DATA     BYTE      PWM3CON1
      000000E5H   SFRSYM    DATA     BYTE      C0H
      000000B7H   SFRSYM    DATA     BYTE      RTCCALMYEAR
      000000E7H   SFRSYM    DATA     BYTE      C1H
      000000C1H   SFRSYM    DATA     BYTE      I2C0ADDR0
      000000B4H   SFRSYM    DATA     BYTE      RTCTALMHZ
      000000BFH   SFRSYM    DATA     BYTE      RWKH
      000000A1H   SFRSYM    DATA     BYTE      I2C0ADDR1
      000000EEH   SFRSYM    DATA     BYTE      C2H
LX51 LINKER/LOCATER V4.66.97.0                                                        10/05/2022  15:23:47  PAGE 30


      000000B2H   SFRSYM    DATA     BYTE      I2C1ADDR0
      0000009FH   SFRSYM    DATA     BYTE      CHPCON
      00000088H.1 SFRSYM    DATA     BIT       IE0
      000000F5H   SFRSYM    DATA     BYTE      LCDCPALCT0
      000000A4H   SFRSYM    DATA     BYTE      I2C1ADDR1
      000000A2H   SFRSYM    DATA     BYTE      I2C0ADDR2
      000000D1H   SFRSYM    DATA     BYTE      PWM0PH
      00000088H.3 SFRSYM    DATA     BIT       IE1
      000000E9H   SFRSYM    DATA     BYTE      LCDCPALCT1
      000000A5H   SFRSYM    DATA     BYTE      I2C1ADDR2
      000000A3H   SFRSYM    DATA     BYTE      I2C0ADDR3
      00000086H   SFRSYM    DATA     BYTE      PWM1PH
      000000E4H   SFRSYM    DATA     BYTE      C0L
      00000091H   SFRSYM    DATA     BYTE      SFRS
      000000B9H   SFRSYM    DATA     BYTE      PWM2PH
      000000A6H   SFRSYM    DATA     BYTE      I2C1ADDR3
      000000E6H   SFRSYM    DATA     BYTE      C1L
      000000C8H.0 SFRSYM    DATA     BIT       CM_RL2
      000000BCH   SFRSYM    DATA     BYTE      RTCLEAPYEAR
      000000C9H   SFRSYM    DATA     BYTE      PWM3PH
      000000EDH   SFRSYM    DATA     BYTE      C2L
      000000F0H   SFRSYM    DATA     BYTE      B
      000000DFH   SFRSYM    DATA     BYTE      SC0TSR
      00000086H   SFRSYM    DATA     BYTE      RWKL
      000000DFH   SFRSYM    DATA     BYTE      SC1TSR
      000000D9H   SFRSYM    DATA     BYTE      PWM0PL
      00000099H   SFRSYM    DATA     BYTE      PWM1PL
      000000F4H   SFRSYM    DATA     BYTE      SPI0SR
      000000C1H   SFRSYM    DATA     BYTE      PWM2PL
      000000D6H   SFRSYM    DATA     BYTE      PWM0NP
      000000FBH   SFRSYM    DATA     BYTE      SPI1SR
      000000A5H   SFRSYM    DATA     BYTE      IAPUEN
      00000099H   SFRSYM    DATA     BYTE      WDCONH
      000000D1H   SFRSYM    DATA     BYTE      PWM3PL
      000000E0H   SFRSYM    DATA     BYTE      ACC
      000000D4H   SFRSYM    DATA     BYTE      ACMPSR
      000000A8H.1 SFRSYM    DATA     BIT       ET0
      000000BCH   SFRSYM    DATA     BYTE      I2C0DAT
      000000A4H   SFRSYM    DATA     BYTE      IAPTRG
      00000092H   SFRSYM    DATA     BYTE      DMA0CR0
      000000A8H.3 SFRSYM    DATA     BIT       ET1
      00000088H.5 SFRSYM    DATA     BIT       TF0
      0000008AH   SFRSYM    DATA     BYTE      DMA0CR1
      000000EBH   SFRSYM    DATA     BYTE      DMA1CR0
      000000BEH   SFRSYM    DATA     BYTE      I2C0CLK
      000000B3H   SFRSYM    DATA     BYTE      I2C1DAT
      00000088H.7 SFRSYM    DATA     BIT       TF1
      000000FBH   SFRSYM    DATA     BYTE      LCDPTR
      0000008BH   SFRSYM    DATA     BYTE      DMA1CR1
      000000B3H   SFRSYM    DATA     BYTE      DMA2CR0
      000000B5H   SFRSYM    DATA     BYTE      I2C1CLK
      000000C8H.7 SFRSYM    DATA     BIT       TF2
      000000C0H.3 SFRSYM    DATA     BIT       SI0
      00000098H.2 SFRSYM    DATA     BIT       RB8
      0000008CH   SFRSYM    DATA     BYTE      DMA2CR1
      000000ABH   SFRSYM    DATA     BYTE      DMA3CR0
      0000008CH   SFRSYM    DATA     BYTE      TH0
      000000E8H.3 SFRSYM    DATA     BIT       SI1
      000000A8H.0 SFRSYM    DATA     BIT       EX0
      00000088H.0 SFRSYM    DATA     BIT       IT0
      0000008DH   SFRSYM    DATA     BYTE      DMA3CR1
      000000C6H   SFRSYM    DATA     BYTE      RH3
      0000008DH   SFRSYM    DATA     BYTE      TH1
      000000A8H.2 SFRSYM    DATA     BIT       EX1
      00000098H.3 SFRSYM    DATA     BIT       TB8
LX51 LINKER/LOCATER V4.66.97.0                                                        10/05/2022  15:23:47  PAGE 31


      00000088H.2 SFRSYM    DATA     BIT       IT1
      000000FDH   SFRSYM    DATA     BYTE      LCDPWR
      000000CDH   SFRSYM    DATA     BYTE      TH2
      000000D0H.0 SFRSYM    DATA     BIT       P
      000000F6H   SFRSYM    DATA     BYTE      DMA0BAH
      00000098H.7 SFRSYM    DATA     BIT       SM0
      000000A9H   SFRSYM    DATA     BYTE      VRFCON
      000000FDH   SFRSYM    DATA     BYTE      DMA1BAH
      000000C0H   SFRSYM    DATA     BYTE      I2C0CON
      0000008AH   SFRSYM    DATA     BYTE      TL0
      00000098H.6 SFRSYM    DATA     BIT       SM1
      000000B2H   SFRSYM    DATA     BYTE      DMA2BAH
      000000E8H   SFRSYM    DATA     BYTE      I2C1CON
      000000C5H   SFRSYM    DATA     BYTE      RL3
      0000008BH   SFRSYM    DATA     BYTE      TL1
      00000098H.5 SFRSYM    DATA     BIT       SM2
      000000A7H   SFRSYM    DATA     BYTE      RTCINTSTS
      000000AAH   SFRSYM    DATA     BYTE      DMA3BAH
      000000F9H   SFRSYM    DATA     BYTE      PWM0DTEN
      000000CCH   SFRSYM    DATA     BYTE      TL2
      000000C6H   SFRSYM    DATA     BYTE      PORDIS
      00000099H   SFRSYM    DATA     BYTE      P0S
      000000B8H.1 SFRSYM    DATA     BIT       PT0
      0000009BH   SFRSYM    DATA     BYTE      P1S
      000000D0H.3 SFRSYM    DATA     BIT       RS0
      000000B8H.3 SFRSYM    DATA     BIT       PT1
      000000B7H   SFRSYM    DATA     BYTE      PWM0INTC
      0000009DH   SFRSYM    DATA     BYTE      P2S
      000000DDH   SFRSYM    DATA     BYTE      SC0IE
      000000D0H.4 SFRSYM    DATA     BIT       RS1
      00000088H.4 SFRSYM    DATA     BIT       TR0
      000000DDH   SFRSYM    DATA     BYTE      SC1IE
      0000009EH   SFRSYM    DATA     BYTE      PWM1INTC
      000000FFH   SFRSYM    DATA     BYTE      LVRDIS
      000000ACH   SFRSYM    DATA     BYTE      P3S
      000000BFH   SFRSYM    DATA     BYTE      I2C0TOC
      00000088H.6 SFRSYM    DATA     BIT       TR1
      000000C6H   SFRSYM    DATA     BYTE      PWM2INTC
      000000BBH   SFRSYM    DATA     BYTE      P4S
      000000F7H   SFRSYM    DATA     BYTE      EIPH0
      000000D5H   SFRSYM    DATA     BYTE      ACMPVREF
      000000B6H   SFRSYM    DATA     BYTE      I2C1TOC
      000000C8H.2 SFRSYM    DATA     BIT       TR2
      000000B8H.0 SFRSYM    DATA     BIT       PX0
      000000D6H   SFRSYM    DATA     BYTE      PWM3INTC
      000000BFH   SFRSYM    DATA     BYTE      P5S
      000000FFH   SFRSYM    DATA     BYTE      EIPH1
      000000B8H.2 SFRSYM    DATA     BIT       PX1
      000000CFH   SFRSYM    DATA     BYTE      I2C0ADDRM
      00000096H   SFRSYM    DATA     BYTE      P6S
      000000ADH   SFRSYM    DATA     BYTE      EIPH2
      000000D7H   SFRSYM    DATA     BYTE      I2C1ADDRM
      00000085H   SFRSYM    DATA     BYTE      XLTCON
      000000E6H   SFRSYM    DATA     BYTE      ADCCN
      000000A1H   SFRSYM    DATA     BYTE      ADCCON0
      000000F1H   SFRSYM    DATA     BYTE      LCDCPUMP
      000000BFH   SFRSYM    DATA     BYTE      RTCCAMSK
      000000E1H   SFRSYM    DATA     BYTE      ADCCON1
      00000092H   SFRSYM    DATA     BYTE      DMA0CRC
      000000E2H   SFRSYM    DATA     BYTE      ADCCON2
      00000083H   SFRSYM    DATA     BYTE      DPH
      000000F8H.2 SFRSYM    DATA     BIT       RB8_1
      00000093H   SFRSYM    DATA     BYTE      DMA1CRC
      000000D9H   SFRSYM    DATA     BYTE      SC0DR
      00000094H   SFRSYM    DATA     BYTE      DMA2CRC
LX51 LINKER/LOCATER V4.66.97.0                                                        10/05/2022  15:23:47  PAGE 32


      000000D9H   SFRSYM    DATA     BYTE      SC1DR
      00000093H   SFRSYM    DATA     BYTE      DMA0MAL
      000000F8H.3 SFRSYM    DATA     BIT       TB8_1
      00000095H   SFRSYM    DATA     BYTE      DMA3CRC
      000000ECH   SFRSYM    DATA     BYTE      DMA1MAL
      000000CAH   SFRSYM    DATA     BYTE      PIF
      000000B4H   SFRSYM    DATA     BYTE      DMA2MAL
      00000082H   SFRSYM    DATA     BYTE      DPL
      000000F8H.7 SFRSYM    DATA     BIT       SM0_1
      000000ACH   SFRSYM    DATA     BYTE      DMA3MAL
      000000D2H   SFRSYM    DATA     BYTE      PWM0C0H
      000000B7H   SFRSYM    DATA     BYTE      IPH
      000000F8H.6 SFRSYM    DATA     BIT       SM1_1
      000000FEH   SFRSYM    DATA     BYTE      LCDBL
      0000008AH   SFRSYM    DATA     BYTE      PWM1C0H
      000000D3H   SFRSYM    DATA     BYTE      PWM0C1H
      0000009AH   SFRSYM    DATA     BYTE      SBUF1
      000000F8H.5 SFRSYM    DATA     BIT       SM2_1
      000000BAH   SFRSYM    DATA     BYTE      PWM2C0H
      0000008BH   SFRSYM    DATA     BYTE      PWM1C1H
      000000D4H   SFRSYM    DATA     BYTE      PWM0C2H
      000000F3H   SFRSYM    DATA     BYTE      SPI0CR0
      000000DEH   SFRSYM    DATA     BYTE      SC0IS
      000000C3H   SFRSYM    DATA     BYTE      ADCRH
      000000DEH   SFRSYM    DATA     BYTE      SC1IS
      000000CAH   SFRSYM    DATA     BYTE      PWM3C0H
      000000BBH   SFRSYM    DATA     BYTE      PWM2C1H
      000000F3H   SFRSYM    DATA     BYTE      SPI0CR1
      000000D5H   SFRSYM    DATA     BYTE      PWM0C3H
      000000F9H   SFRSYM    DATA     BYTE      SPI1CR0
      000000A7H   SFRSYM    DATA     BYTE      IAPAH
      00000098H.4 SFRSYM    DATA     BIT       REN
      000000F9H   SFRSYM    DATA     BYTE      LCDCON0
      000000CBH   SFRSYM    DATA     BYTE      PWM3C1H
      000000DAH   SFRSYM    DATA     BYTE      PWM0C0L
      000000C4H   SFRSYM    DATA     BYTE      PWM0C4H
      000000FAH   SFRSYM    DATA     BYTE      SPI1CR1
      000000F8H   SFRSYM    DATA     BYTE      S1CON
      000000AEH   SFRSYM    DATA     BYTE      IAPFD
      000000F4H   SFRSYM    DATA     BYTE      LCDCON1
      0000009AH   SFRSYM    DATA     BYTE      PWM1C0L
      000000E1H   SFRSYM    DATA     BYTE      CAPCON0
      000000DBH   SFRSYM    DATA     BYTE      PWM0C1L
      000000C5H   SFRSYM    DATA     BYTE      PWM0C5H
      000000C2H   SFRSYM    DATA     BYTE      PWM2C0L
      0000009BH   SFRSYM    DATA     BYTE      PWM1C1L
      000000E2H   SFRSYM    DATA     BYTE      CAPCON1
      000000DCH   SFRSYM    DATA     BYTE      PWM0C2L
      000000C9H   SFRSYM    DATA     BYTE      T2MOD
      000000C8H   SFRSYM    DATA     BYTE      T2CON
      000000C2H   SFRSYM    DATA     BYTE      ADCRL
      000000A3H   SFRSYM    DATA     BYTE      BODCON0
      000000B5H   SFRSYM    DATA     BYTE      RTCCALMDAY
      000000D2H   SFRSYM    DATA     BYTE      PWM3C0L
      000000C3H   SFRSYM    DATA     BYTE      PWM2C1L
      000000E3H   SFRSYM    DATA     BYTE      CAPCON2
      000000DDH   SFRSYM    DATA     BYTE      PWM0C3L
      000000D2H   SFRSYM    DATA     BYTE      ACMPCR0
      000000C4H   SFRSYM    DATA     BYTE      T3CON
      000000ABH   SFRSYM    DATA     BYTE      BODCON1
      000000A6H   SFRSYM    DATA     BYTE      IAPAL
      000000D3H   SFRSYM    DATA     BYTE      PWM3C1L
      000000CCH   SFRSYM    DATA     BYTE      PWM0C4L
      00000084H   SFRSYM    DATA     BYTE      LIRCTRIM
      000000D3H   SFRSYM    DATA     BYTE      ACMPCR1
LX51 LINKER/LOCATER V4.66.97.0                                                        10/05/2022  15:23:47  PAGE 33


      00000094H   SFRSYM    DATA     BYTE      DMA0CNT
      000000A6H   SFRSYM    DATA     BYTE      RTCINTEN
      000000CDH   SFRSYM    DATA     BYTE      PWM0C5L
      000000ABH   SFRSYM    DATA     BYTE      ACMPCR2
      000000EDH   SFRSYM    DATA     BYTE      DMA1CNT
      000000E5H   SFRSYM    DATA     BYTE      ADCSN
      000000B5H   SFRSYM    DATA     BYTE      DMA2CNT
      000000BEH   SFRSYM    DATA     BYTE      RTCTAMSK
      000000ADH   SFRSYM    DATA     BYTE      DMA3CNT
      000000B9H   SFRSYM    DATA     BYTE      SADEN
      000000AFH   SFRSYM    DATA     BYTE      IAPCN
      000000A1H   SFRSYM    DATA     BYTE      PIPS0
      000000AFH   SFRSYM    DATA     BYTE      RTCCALYEAR
      000000A2H   SFRSYM    DATA     BYTE      PIPS1
      000000E7H   SFRSYM    DATA     BYTE      ADCSR
      000000A3H   SFRSYM    DATA     BYTE      PIPS2
      000000A9H   SFRSYM    DATA     BYTE      SADDR
      0000008EH   SFRSYM    DATA     BYTE      CKCON
      000000FDH   SFRSYM    DATA     BYTE      LVRFLTEN
      000000A4H   SFRSYM    DATA     BYTE      PIPS3
      000000A5H   SFRSYM    DATA     BYTE      PIPS4
      000000EAH   SFRSYM    DATA     BYTE      MTM0DAL
      000000A2H   SFRSYM    DATA     BYTE      AUXR0
      000000D7H   SFRSYM    DATA     BYTE      PWM0FBD
      000000C9H   SFRSYM    DATA     BYTE      AUXR1
      000000C1H   SFRSYM    DATA     BYTE      CKDIV
      000000A6H   SFRSYM    DATA     BYTE      PIPS5
      000000F2H   SFRSYM    DATA     BYTE      MTM1DAL
      000000B7H   SFRSYM    DATA     BYTE      MTM2DAL
      000000A7H   SFRSYM    DATA     BYTE      PIPS6
      000000CFH   SFRSYM    DATA     BYTE      AUXR3
      000000B6H   SFRSYM    DATA     BYTE      RTCCALMMON
      000000AFH   SFRSYM    DATA     BYTE      MTM3DAL
      000000AFH   SFRSYM    DATA     BYTE      PIPS7
      000000D0H.5 SFRSYM    DATA     BIT       F0
      000000F9H   SFRSYM    DATA     BYTE      P0MF10
      000000F8H.4 SFRSYM    DATA     BIT       REN_1
      000000B1H   SFRSYM    DATA     BYTE      RTCTALMSEC
      000000FDH   SFRSYM    DATA     BYTE      P1MF10
      000000BBH   SFRSYM    DATA     BYTE      RTCWEEKDAY
      000000A9H   SFRSYM    DATA     BYTE      RTCTIMESEC
      000000F2H   SFRSYM    DATA     BYTE      P2MF10
      0000009DH   SFRSYM    DATA     BYTE      RSR
      000000F6H   SFRSYM    DATA     BYTE      P3MF10
      000000FAH   SFRSYM    DATA     BYTE      P0MF32
      000000EBH   SFRSYM    DATA     BYTE      P4MF10
      000000FFH   SFRSYM    DATA     BYTE      LCDMODE
      000000FEH   SFRSYM    DATA     BYTE      P1MF32
      000000EFH   SFRSYM    DATA     BYTE      P5MF10
      000000E9H   SFRSYM    DATA     BYTE      PICON
      000000D0H   SFRSYM    DATA     BYTE      PSW
      000000F3H   SFRSYM    DATA     BYTE      P2MF32
      00000092H   SFRSYM    DATA     BYTE      P6MF10
      000000EAH   SFRSYM    DATA     BYTE      PINEN
      000000F7H   SFRSYM    DATA     BYTE      P3MF32
      000000AAH   SFRSYM    DATA     BYTE      WDCON
      000000FBH   SFRSYM    DATA     BYTE      P0MF54
      000000ECH   SFRSYM    DATA     BYTE      P4MF32
      000000EBH   SFRSYM    DATA     BYTE      PIPEN
      000000E9H   SFRSYM    DATA     BYTE      DMA0TSR
      000000DBH   SFRSYM    DATA     BYTE      SC0ETURD0
      00000007H   SYMBOL    DATA     BYTE      TH0TMP
      00000007H   SYMBOL    DATA     BYTE      TH1TMP

      01000160H   BLOCK     CODE     ---       LVL=0
LX51 LINKER/LOCATER V4.66.97.0                                                        10/05/2022  15:23:47  PAGE 34


      00000008H   SYMBOL    DATA     DWORD     u32SYSCLK
      0000000CH   SYMBOL    DATA     WORD      u16TMDIV
      0000000EH   SYMBOL    DATA     WORD      u16CNT
      00000010H   SYMBOL    DATA     DWORD     u32DLYUnit
      01000168H   BLOCK     CODE     NEAR LAB  LVL=1
      00000014H   SYMBOL    DATA     BYTE      TL2TMP
      00000007H   SYMBOL    DATA     BYTE      TH2TMP
      ---         BLOCKEND  ---      ---       LVL=1
      01000160H   LINE      CODE     ---       #98
      01000168H   LINE      CODE     ---       #99
      01000168H   LINE      CODE     ---       #102
      0100016BH   LINE      CODE     ---       #103
      01000197H   LINE      CODE     ---       #104
      01000197H   LINE      CODE     ---       #105
      0100019CH   LINE      CODE     ---       #106
      010001A4H   LINE      CODE     ---       #107
      010001ACH   LINE      CODE     ---       #108
      010001B4H   LINE      CODE     ---       #109
      010001BCH   LINE      CODE     ---       #110
      010001C4H   LINE      CODE     ---       #111
      010001CCH   LINE      CODE     ---       #112
      010001D2H   LINE      CODE     ---       #113
      010001D2H   LINE      CODE     ---       #117
      01000218H   LINE      CODE     ---       #118
      0100025EH   LINE      CODE     ---       #119
      01000264H   LINE      CODE     ---       #120
      01000264H   LINE      CODE     ---       #121
      01000267H   LINE      CODE     ---       #122
      0100026AH   LINE      CODE     ---       #123
      0100026CH   LINE      CODE     ---       #124
      0100026FH   LINE      CODE     ---       #125
      01000272H   LINE      CODE     ---       #126
      01000275H   LINE      CODE     ---       #127
      0100027DH   LINE      CODE     ---       #128
      0100027FH   LINE      CODE     ---       #129
      ---         BLOCKEND  ---      ---       LVL=0
      00000007H   SYMBOL    DATA     BYTE      TH3TMP
      00000007H   SYMBOL    DATA     BYTE      u8TM

      ---         MODULE    ---      ---       GPIO
      01000280H   PUBLIC    CODE     ---       _GPIO_SetMode
      000000FFH   SFRSYM    DATA     BYTE      P1MF54
      000000E1H   SFRSYM    DATA     BYTE      P5MF32
      000000DBH   SFRSYM    DATA     BYTE      SC1ETURD0
      000000B1H   SFRSYM    DATA     BYTE      P0M1
      000000F1H   SFRSYM    DATA     BYTE      DMA1TSR
      000000DCH   SFRSYM    DATA     BYTE      SC0ETURD1
      000000B2H   SFRSYM    DATA     BYTE      RTCTALMMIN
      000000F4H   SFRSYM    DATA     BYTE      P2MF54
      000000DCH   SFRSYM    DATA     BYTE      SC1ETURD1
      000000B1H   SFRSYM    DATA     BYTE      DMA2TSR
      00000093H   SFRSYM    DATA     BYTE      P6MF32
      000000B3H   SFRSYM    DATA     BYTE      P1M1
      000000B2H   SFRSYM    DATA     BYTE      P0M2
      00000080H   SFRSYM    DATA     BYTE      P0
      000000AAH   SFRSYM    DATA     BYTE      RTCTIMEMIN
      000000E9H   SFRSYM    DATA     BYTE      P3MF54
      000000A9H   SFRSYM    DATA     BYTE      DMA3TSR
      000000B5H   SFRSYM    DATA     BYTE      P2M1
      000000B4H   SFRSYM    DATA     BYTE      P1M2
      00000090H   SFRSYM    DATA     BYTE      P1
      000000CEH   SFRSYM    DATA     BYTE      PWM0FBS
      000000FCH   SFRSYM    DATA     BYTE      P0MF76
      000000EDH   SFRSYM    DATA     BYTE      P4MF54
      000000C2H   SFRSYM    DATA     BYTE      P3M1
LX51 LINKER/LOCATER V4.66.97.0                                                        10/05/2022  15:23:47  PAGE 35


      000000B6H   SFRSYM    DATA     BYTE      P2M2
      000000A0H   SFRSYM    DATA     BYTE      P2
      000000C0H.6 SFRSYM    DATA     BIT       I2CEN0
      000000F1H   SFRSYM    DATA     BYTE      P1MF76
      000000E2H   SFRSYM    DATA     BYTE      P5MF54
      000000C3H   SFRSYM    DATA     BYTE      P3M2
      000000B9H   SFRSYM    DATA     BYTE      P4M1
      000000B0H   SFRSYM    DATA     BYTE      P3
      000000D0H.6 SFRSYM    DATA     BIT       AC
      000000E8H.6 SFRSYM    DATA     BIT       I2CEN1
      000000F5H   SFRSYM    DATA     BYTE      P2MF76
      00000094H   SFRSYM    DATA     BYTE      P6MF54
      000000BDH   SFRSYM    DATA     BYTE      P5M1
      000000BAH   SFRSYM    DATA     BYTE      P4M2
      000000D8H   SFRSYM    DATA     BYTE      P4
      0000009BH   SFRSYM    DATA     BYTE      EIE0
      0000008FH   SFRSYM    DATA     BYTE      WKCON
      00000084H   SFRSYM    DATA     BYTE      RCTRIM0
      000000EAH   SFRSYM    DATA     BYTE      P3MF76
      00000084H   SFRSYM    DATA     BYTE      P6M1
      000000BEH   SFRSYM    DATA     BYTE      P5M2
      000000B1H   SFRSYM    DATA     BYTE      P5
      0000009CH   SFRSYM    DATA     BYTE      EIE1
      00000085H   SFRSYM    DATA     BYTE      RCTRIM1
      000000A8H.7 SFRSYM    DATA     BIT       EA
      000000EEH   SFRSYM    DATA     BYTE      P4MF76
      000000A7H   SFRSYM    DATA     BYTE      P6
      00000085H   SFRSYM    DATA     BYTE      P6M2
      000000E3H   SFRSYM    DATA     BYTE      P5MF76
      000000FBH   SFRSYM    DATA     BYTE      PWM0MEN
      00000095H   SFRSYM    DATA     BYTE      P6MF76
      0000008DH   SFRSYM    DATA     BYTE      PWM1MEN
      000000A0H.5 SFRSYM    DATA     BIT       AIN0
      000000BDH   SFRSYM    DATA     BYTE      PWM2MEN
      000000A0H.4 SFRSYM    DATA     BIT       AIN1
      000000CDH   SFRSYM    DATA     BYTE      PWM3MEN
      000000A0H.3 SFRSYM    DATA     BIT       AIN2
      00000098H.7 SFRSYM    DATA     BIT       FE
      000000A0H.2 SFRSYM    DATA     BIT       AIN3
      000000A0H.1 SFRSYM    DATA     BIT       AIN4
      000000D6H   SFRSYM    DATA     BYTE      SC0CR0
      000000A0H.0 SFRSYM    DATA     BIT       AIN5
      000000A8H.6 SFRSYM    DATA     BIT       EADC
      000000E6H   SFRSYM    DATA     BYTE      SC1CR0
      000000D7H   SFRSYM    DATA     BYTE      SC0CR1
      000000A8H   SFRSYM    DATA     BYTE      IE
      00000096H   SFRSYM    DATA     BYTE      CKSWT
      000000B0H.1 SFRSYM    DATA     BIT       AIN6
      000000E7H   SFRSYM    DATA     BYTE      SC1CR1
      000000EFH   SFRSYM    DATA     BYTE      EIP0
      000000B0H.2 SFRSYM    DATA     BIT       AIN7
      000000FEH   SFRSYM    DATA     BYTE      EIP1
      000000ACH   SFRSYM    DATA     BYTE      EIP2
      000000E4H   SFRSYM    DATA     BYTE      ADCBAH
      000000C7H   SFRSYM    DATA     BYTE      TA
      000000E4H   SFRSYM    DATA     BYTE      BRCTRIM
      000000BDH   SFRSYM    DATA     BYTE      RTCTICK
      000000C0H.0 SFRSYM    DATA     BIT       I2C0PX
      000000A8H.4 SFRSYM    DATA     BIT       ES
      000000E8H.0 SFRSYM    DATA     BIT       I2CPX1
      000000C0H.5 SFRSYM    DATA     BIT       STA0
      000000B8H.6 SFRSYM    DATA     BIT       PADC
      000000CBH   SFRSYM    DATA     BYTE      ADCBAL
      000000B8H   SFRSYM    DATA     BYTE      IP
      000000E8H.5 SFRSYM    DATA     BIT       STA1
LX51 LINKER/LOCATER V4.66.97.0                                                        10/05/2022  15:23:47  PAGE 36


      000000E5H   SFRSYM    DATA     BYTE      ADCCAL
      000000A8H.5 SFRSYM    DATA     BIT       EBOD
      00000098H.0 SFRSYM    DATA     BIT       RI
      000000ADH   SFRSYM    DATA     BYTE      RTCCALDAY
      000000A4H   SFRSYM    DATA     BYTE      RTCFREQADJ0
      000000F8H.7 SFRSYM    DATA     BIT       FE_1
      000000D0H.7 SFRSYM    DATA     BIT       CY
      000000A5H   SFRSYM    DATA     BYTE      RTCFREQADJ1
      0000008AH   SFRSYM    DATA     BYTE      P0DW
      00000098H.1 SFRSYM    DATA     BIT       TI
      0000008BH   SFRSYM    DATA     BYTE      P1DW
      000000EFH   SFRSYM    DATA     BYTE      LDOTRIM
      0000008CH   SFRSYM    DATA     BYTE      P2DW
      000000BAH   SFRSYM    DATA     BYTE      SADEN1
      0000008DH   SFRSYM    DATA     BYTE      P3DW
      000000A1H   SFRSYM    DATA     BYTE      RTCINIT
      0000008EH   SFRSYM    DATA     BYTE      P4DW
      0000008FH   SFRSYM    DATA     BYTE      P5DW
      000000BBH   SFRSYM    DATA     BYTE      SADDR1
      0000008FH   SFRSYM    DATA     BYTE      P6DW
      00000097H   SFRSYM    DATA     BYTE      CKEN
      000000B8H.4 SFRSYM    DATA     BIT       PS
      00000081H   SFRSYM    DATA     BYTE      SP
      000000D0H.2 SFRSYM    DATA     BIT       OV
      000000FAH   SFRSYM    DATA     BYTE      PWM0DTCNT
      000000B8H.5 SFRSYM    DATA     BIT       PBOD
      0000009AH   SFRSYM    DATA     BYTE      DMA0SEED
      0000009AH   SFRSYM    DATA     BYTE      P0SR
      00000092H   SFRSYM    DATA     BYTE      P0UP
      000000C0H.4 SFRSYM    DATA     BIT       STO0
      000000AEH   SFRSYM    DATA     BYTE      RTCCALMON
      0000009BH   SFRSYM    DATA     BYTE      DMA1SEED
      0000009CH   SFRSYM    DATA     BYTE      P1SR
      00000093H   SFRSYM    DATA     BYTE      P1UP
      000000E8H.4 SFRSYM    DATA     BIT       STO1
      000000A2H   SFRSYM    DATA     BYTE      RTCRWEN
      0000009CH   SFRSYM    DATA     BYTE      DMA2SEED
      0000009EH   SFRSYM    DATA     BYTE      P2SR
      00000094H   SFRSYM    DATA     BYTE      P2UP
      000000DAH   SFRSYM    DATA     BYTE      SC0EGT
      0000009DH   SFRSYM    DATA     BYTE      DMA3SEED
      000000DAH   SFRSYM    DATA     BYTE      SC1EGT
      000000ADH   SFRSYM    DATA     BYTE      P3SR
      00000095H   SFRSYM    DATA     BYTE      P3UP
      000000BCH   SFRSYM    DATA     BYTE      P4SR
      00000096H   SFRSYM    DATA     BYTE      P4UP
      000000A3H   SFRSYM    DATA     BYTE      RTCCLKSEL
      000000AEH   SFRSYM    DATA     BYTE      P5SR
      00000097H   SFRSYM    DATA     BYTE      P5UP
      000000F8H.0 SFRSYM    DATA     BIT       RI_1
      00000097H   SFRSYM    DATA     BYTE      P6UP
      0000008EH   SFRSYM    DATA     BYTE      P6SR
      000000AAH   SFRSYM    DATA     BYTE      VRFTRIM
      000000BDH   SFRSYM    DATA     BYTE      I2C0STAT
      00000095H   SFRSYM    DATA     BYTE      DMA0CCNT
      000000F8H.1 SFRSYM    DATA     BIT       TI_1
      000000FCH   SFRSYM    DATA     BYTE      LCDDAT
      000000B9H   SFRSYM    DATA     BYTE      RTCCLKFMT
      000000BEH   SFRSYM    DATA     BYTE      CWKH
      000000CBH   SFRSYM    DATA     BYTE      RCMP2H
      000000EEH   SFRSYM    DATA     BYTE      DMA1CCNT
      000000B4H   SFRSYM    DATA     BYTE      I2C1STAT
      000000FAH   SFRSYM    DATA     BYTE      LCDCLK
      000000B6H   SFRSYM    DATA     BYTE      DMA2CCNT
      000000CEH   SFRSYM    DATA     BYTE      AINDIDS0
LX51 LINKER/LOCATER V4.66.97.0                                                        10/05/2022  15:23:47  PAGE 37


      000000CFH   SFRSYM    DATA     BYTE      ADCMPH
      00000080H.0 SFRSYM    DATA     BIT       P00
      000000F6H   SFRSYM    DATA     BYTE      LCDCPCT0
      000000CEH   SFRSYM    DATA     BYTE      AINDIDS1
      000000AEH   SFRSYM    DATA     BYTE      DMA3CCNT
      00000090H.0 SFRSYM    DATA     BIT       P10
      00000080H.1 SFRSYM    DATA     BIT       P01
      000000EAH   SFRSYM    DATA     BYTE      LCDCPCT1
      00000099H   SFRSYM    DATA     BYTE      SBUF
      00000087H   SFRSYM    DATA     BYTE      PCON
      000000C0H.2 SFRSYM    DATA     BIT       AA0
      000000A0H.0 SFRSYM    DATA     BIT       P20
      00000090H.1 SFRSYM    DATA     BIT       P11
      00000080H.2 SFRSYM    DATA     BIT       P02
      000000CAH   SFRSYM    DATA     BYTE      RCMP2L
      00000086H   SFRSYM    DATA     BYTE      CWKL
      000000E8H.2 SFRSYM    DATA     BIT       AA1
      000000B0H.0 SFRSYM    DATA     BIT       P30
      000000A0H.1 SFRSYM    DATA     BIT       P21
      00000090H.2 SFRSYM    DATA     BIT       P12
      00000080H.3 SFRSYM    DATA     BIT       P03
      000000E3H   SFRSYM    DATA     BYTE      ADCDLY
      000000CEH   SFRSYM    DATA     BYTE      ADCMPL
      000000D8H.0 SFRSYM    DATA     BIT       P40
      000000B0H.1 SFRSYM    DATA     BIT       P31
      000000A0H.2 SFRSYM    DATA     BIT       P22
      00000090H.3 SFRSYM    DATA     BIT       P13
      00000080H.4 SFRSYM    DATA     BIT       P04
      000000F5H   SFRSYM    DATA     BYTE      SPI0DR
      00000098H   SFRSYM    DATA     BYTE      SCON
      000000D8H.1 SFRSYM    DATA     BIT       P41
      000000B0H.2 SFRSYM    DATA     BIT       P32
      000000A0H.3 SFRSYM    DATA     BIT       P23
      00000090H.4 SFRSYM    DATA     BIT       P14
      00000080H.5 SFRSYM    DATA     BIT       P05
      000000B3H   SFRSYM    DATA     BYTE      RTCTALMHR
      000000FCH   SFRSYM    DATA     BYTE      SPI1DR
      00000089H   SFRSYM    DATA     BYTE      TMOD
      00000088H   SFRSYM    DATA     BYTE      TCON
      000000D8H.2 SFRSYM    DATA     BIT       P42
      000000B0H.3 SFRSYM    DATA     BIT       P33
      000000A0H.4 SFRSYM    DATA     BIT       P24
      00000090H.5 SFRSYM    DATA     BIT       P15
      00000080H.6 SFRSYM    DATA     BIT       P06
      000000ABH   SFRSYM    DATA     BYTE      RTCTIMEHR
      000000D8H.3 SFRSYM    DATA     BIT       P43
      000000B0H.4 SFRSYM    DATA     BIT       P34
      000000A0H.5 SFRSYM    DATA     BIT       P25
      00000090H.6 SFRSYM    DATA     BIT       P16
      00000080H.7 SFRSYM    DATA     BIT       P07
      000000FCH   SFRSYM    DATA     BYTE      PWM0MD
      000000D1H   SFRSYM    DATA     BYTE      PWM0CON0
      000000D8H.4 SFRSYM    DATA     BIT       P44
      000000B0H.5 SFRSYM    DATA     BIT       P35
      000000A0H.6 SFRSYM    DATA     BIT       P26
      00000090H.7 SFRSYM    DATA     BIT       P17
      0000009CH   SFRSYM    DATA     BYTE      PWM1CON0
      0000008CH   SFRSYM    DATA     BYTE      PWM1MD
      000000DFH   SFRSYM    DATA     BYTE      PWM0CON1
      000000D8H.5 SFRSYM    DATA     BIT       P45
      000000B0H.6 SFRSYM    DATA     BIT       P36
      000000A0H.7 SFRSYM    DATA     BIT       P27
      000000C4H   SFRSYM    DATA     BYTE      PWM2CON0
      000000BCH   SFRSYM    DATA     BYTE      PWM2MD
      0000009DH   SFRSYM    DATA     BYTE      PWM1CON1
LX51 LINKER/LOCATER V4.66.97.0                                                        10/05/2022  15:23:47  PAGE 38


      000000D8H.6 SFRSYM    DATA     BIT       P46
      000000B0H.7 SFRSYM    DATA     BIT       P37
      000000D4H   SFRSYM    DATA     BYTE      PWM3CON0
      000000CCH   SFRSYM    DATA     BYTE      PWM3MD
      000000C5H   SFRSYM    DATA     BYTE      PWM2CON1
      000000D8H.7 SFRSYM    DATA     BIT       P47
      000000D5H   SFRSYM    DATA     BYTE      PWM3CON1
      000000E5H   SFRSYM    DATA     BYTE      C0H
      000000B7H   SFRSYM    DATA     BYTE      RTCCALMYEAR
      000000E7H   SFRSYM    DATA     BYTE      C1H
      000000C1H   SFRSYM    DATA     BYTE      I2C0ADDR0
      000000B4H   SFRSYM    DATA     BYTE      RTCTALMHZ
      000000BFH   SFRSYM    DATA     BYTE      RWKH
      000000A1H   SFRSYM    DATA     BYTE      I2C0ADDR1
      000000EEH   SFRSYM    DATA     BYTE      C2H
      000000B2H   SFRSYM    DATA     BYTE      I2C1ADDR0
      0000009FH   SFRSYM    DATA     BYTE      CHPCON
      00000088H.1 SFRSYM    DATA     BIT       IE0
      000000F5H   SFRSYM    DATA     BYTE      LCDCPALCT0
      000000A4H   SFRSYM    DATA     BYTE      I2C1ADDR1
      000000A2H   SFRSYM    DATA     BYTE      I2C0ADDR2
      000000D1H   SFRSYM    DATA     BYTE      PWM0PH
      00000088H.3 SFRSYM    DATA     BIT       IE1
      000000E9H   SFRSYM    DATA     BYTE      LCDCPALCT1
      000000A5H   SFRSYM    DATA     BYTE      I2C1ADDR2
      000000A3H   SFRSYM    DATA     BYTE      I2C0ADDR3
      00000086H   SFRSYM    DATA     BYTE      PWM1PH
      000000E4H   SFRSYM    DATA     BYTE      C0L
      00000091H   SFRSYM    DATA     BYTE      SFRS
      000000B9H   SFRSYM    DATA     BYTE      PWM2PH
      000000A6H   SFRSYM    DATA     BYTE      I2C1ADDR3
      000000E6H   SFRSYM    DATA     BYTE      C1L
      000000C8H.0 SFRSYM    DATA     BIT       CM_RL2
      000000BCH   SFRSYM    DATA     BYTE      RTCLEAPYEAR
      000000C9H   SFRSYM    DATA     BYTE      PWM3PH
      000000EDH   SFRSYM    DATA     BYTE      C2L
      000000F0H   SFRSYM    DATA     BYTE      B
      000000DFH   SFRSYM    DATA     BYTE      SC0TSR
      00000086H   SFRSYM    DATA     BYTE      RWKL
      000000DFH   SFRSYM    DATA     BYTE      SC1TSR
      000000D9H   SFRSYM    DATA     BYTE      PWM0PL
      00000099H   SFRSYM    DATA     BYTE      PWM1PL
      000000F4H   SFRSYM    DATA     BYTE      SPI0SR
      000000C1H   SFRSYM    DATA     BYTE      PWM2PL
      000000D6H   SFRSYM    DATA     BYTE      PWM0NP
      000000FBH   SFRSYM    DATA     BYTE      SPI1SR
      000000A5H   SFRSYM    DATA     BYTE      IAPUEN
      00000099H   SFRSYM    DATA     BYTE      WDCONH
      000000D1H   SFRSYM    DATA     BYTE      PWM3PL
      000000E0H   SFRSYM    DATA     BYTE      ACC
      000000D4H   SFRSYM    DATA     BYTE      ACMPSR
      000000A8H.1 SFRSYM    DATA     BIT       ET0
      000000BCH   SFRSYM    DATA     BYTE      I2C0DAT
      000000A4H   SFRSYM    DATA     BYTE      IAPTRG
      00000092H   SFRSYM    DATA     BYTE      DMA0CR0
      000000A8H.3 SFRSYM    DATA     BIT       ET1
      00000088H.5 SFRSYM    DATA     BIT       TF0
      0000008AH   SFRSYM    DATA     BYTE      DMA0CR1
      000000EBH   SFRSYM    DATA     BYTE      DMA1CR0
      000000BEH   SFRSYM    DATA     BYTE      I2C0CLK
      000000B3H   SFRSYM    DATA     BYTE      I2C1DAT
      00000088H.7 SFRSYM    DATA     BIT       TF1
      000000FBH   SFRSYM    DATA     BYTE      LCDPTR
      0000008BH   SFRSYM    DATA     BYTE      DMA1CR1
      000000B3H   SFRSYM    DATA     BYTE      DMA2CR0
LX51 LINKER/LOCATER V4.66.97.0                                                        10/05/2022  15:23:47  PAGE 39


      000000B5H   SFRSYM    DATA     BYTE      I2C1CLK
      000000C8H.7 SFRSYM    DATA     BIT       TF2
      000000C0H.3 SFRSYM    DATA     BIT       SI0
      00000098H.2 SFRSYM    DATA     BIT       RB8
      0000008CH   SFRSYM    DATA     BYTE      DMA2CR1
      000000ABH   SFRSYM    DATA     BYTE      DMA3CR0
      0000008CH   SFRSYM    DATA     BYTE      TH0
      000000E8H.3 SFRSYM    DATA     BIT       SI1
      000000A8H.0 SFRSYM    DATA     BIT       EX0
      00000088H.0 SFRSYM    DATA     BIT       IT0
      0000008DH   SFRSYM    DATA     BYTE      DMA3CR1
      000000C6H   SFRSYM    DATA     BYTE      RH3
      0000008DH   SFRSYM    DATA     BYTE      TH1
      000000A8H.2 SFRSYM    DATA     BIT       EX1
      00000098H.3 SFRSYM    DATA     BIT       TB8
      00000088H.2 SFRSYM    DATA     BIT       IT1
      000000FDH   SFRSYM    DATA     BYTE      LCDPWR
      000000CDH   SFRSYM    DATA     BYTE      TH2
      000000D0H.0 SFRSYM    DATA     BIT       P
      000000F6H   SFRSYM    DATA     BYTE      DMA0BAH
      00000098H.7 SFRSYM    DATA     BIT       SM0
      000000A9H   SFRSYM    DATA     BYTE      VRFCON
      000000FDH   SFRSYM    DATA     BYTE      DMA1BAH
      000000C0H   SFRSYM    DATA     BYTE      I2C0CON
      0000008AH   SFRSYM    DATA     BYTE      TL0
      00000098H.6 SFRSYM    DATA     BIT       SM1
      000000B2H   SFRSYM    DATA     BYTE      DMA2BAH
      000000E8H   SFRSYM    DATA     BYTE      I2C1CON
      000000C5H   SFRSYM    DATA     BYTE      RL3
      0000008BH   SFRSYM    DATA     BYTE      TL1
      00000098H.5 SFRSYM    DATA     BIT       SM2
      000000A7H   SFRSYM    DATA     BYTE      RTCINTSTS
      000000AAH   SFRSYM    DATA     BYTE      DMA3BAH
      000000F9H   SFRSYM    DATA     BYTE      PWM0DTEN
      000000CCH   SFRSYM    DATA     BYTE      TL2
      000000C6H   SFRSYM    DATA     BYTE      PORDIS
      00000099H   SFRSYM    DATA     BYTE      P0S
      000000B8H.1 SFRSYM    DATA     BIT       PT0
      0000009BH   SFRSYM    DATA     BYTE      P1S
      000000D0H.3 SFRSYM    DATA     BIT       RS0
      000000B8H.3 SFRSYM    DATA     BIT       PT1
      000000B7H   SFRSYM    DATA     BYTE      PWM0INTC
      0000009DH   SFRSYM    DATA     BYTE      P2S
      000000DDH   SFRSYM    DATA     BYTE      SC0IE
      000000D0H.4 SFRSYM    DATA     BIT       RS1
      00000088H.4 SFRSYM    DATA     BIT       TR0
      000000DDH   SFRSYM    DATA     BYTE      SC1IE
      0000009EH   SFRSYM    DATA     BYTE      PWM1INTC
      000000FFH   SFRSYM    DATA     BYTE      LVRDIS
      000000ACH   SFRSYM    DATA     BYTE      P3S
      000000BFH   SFRSYM    DATA     BYTE      I2C0TOC
      00000088H.6 SFRSYM    DATA     BIT       TR1
      000000C6H   SFRSYM    DATA     BYTE      PWM2INTC
      000000BBH   SFRSYM    DATA     BYTE      P4S
      000000F7H   SFRSYM    DATA     BYTE      EIPH0
      000000D5H   SFRSYM    DATA     BYTE      ACMPVREF
      000000B6H   SFRSYM    DATA     BYTE      I2C1TOC
      000000C8H.2 SFRSYM    DATA     BIT       TR2
      000000B8H.0 SFRSYM    DATA     BIT       PX0
      000000D6H   SFRSYM    DATA     BYTE      PWM3INTC
      000000BFH   SFRSYM    DATA     BYTE      P5S
      000000FFH   SFRSYM    DATA     BYTE      EIPH1
      000000B8H.2 SFRSYM    DATA     BIT       PX1
      000000CFH   SFRSYM    DATA     BYTE      I2C0ADDRM
      00000096H   SFRSYM    DATA     BYTE      P6S
LX51 LINKER/LOCATER V4.66.97.0                                                        10/05/2022  15:23:47  PAGE 40


      000000ADH   SFRSYM    DATA     BYTE      EIPH2
      000000D7H   SFRSYM    DATA     BYTE      I2C1ADDRM
      00000085H   SFRSYM    DATA     BYTE      XLTCON
      000000E6H   SFRSYM    DATA     BYTE      ADCCN
      000000A1H   SFRSYM    DATA     BYTE      ADCCON0
      000000F1H   SFRSYM    DATA     BYTE      LCDCPUMP
      000000BFH   SFRSYM    DATA     BYTE      RTCCAMSK
      000000E1H   SFRSYM    DATA     BYTE      ADCCON1
      00000092H   SFRSYM    DATA     BYTE      DMA0CRC
      000000E2H   SFRSYM    DATA     BYTE      ADCCON2
      00000083H   SFRSYM    DATA     BYTE      DPH
      000000F8H.2 SFRSYM    DATA     BIT       RB8_1
      00000093H   SFRSYM    DATA     BYTE      DMA1CRC
      000000D9H   SFRSYM    DATA     BYTE      SC0DR
      00000094H   SFRSYM    DATA     BYTE      DMA2CRC
      000000D9H   SFRSYM    DATA     BYTE      SC1DR
      00000093H   SFRSYM    DATA     BYTE      DMA0MAL
      000000F8H.3 SFRSYM    DATA     BIT       TB8_1
      00000095H   SFRSYM    DATA     BYTE      DMA3CRC
      000000ECH   SFRSYM    DATA     BYTE      DMA1MAL
      000000CAH   SFRSYM    DATA     BYTE      PIF
      000000B4H   SFRSYM    DATA     BYTE      DMA2MAL
      00000082H   SFRSYM    DATA     BYTE      DPL
      000000F8H.7 SFRSYM    DATA     BIT       SM0_1
      000000ACH   SFRSYM    DATA     BYTE      DMA3MAL
      000000D2H   SFRSYM    DATA     BYTE      PWM0C0H
      000000B7H   SFRSYM    DATA     BYTE      IPH
      000000F8H.6 SFRSYM    DATA     BIT       SM1_1
      000000FEH   SFRSYM    DATA     BYTE      LCDBL
      0000008AH   SFRSYM    DATA     BYTE      PWM1C0H
      000000D3H   SFRSYM    DATA     BYTE      PWM0C1H
      0000009AH   SFRSYM    DATA     BYTE      SBUF1
      000000F8H.5 SFRSYM    DATA     BIT       SM2_1
      000000BAH   SFRSYM    DATA     BYTE      PWM2C0H
      0000008BH   SFRSYM    DATA     BYTE      PWM1C1H
      000000D4H   SFRSYM    DATA     BYTE      PWM0C2H
      000000F3H   SFRSYM    DATA     BYTE      SPI0CR0
      000000DEH   SFRSYM    DATA     BYTE      SC0IS
      000000C3H   SFRSYM    DATA     BYTE      ADCRH
      000000DEH   SFRSYM    DATA     BYTE      SC1IS
      000000CAH   SFRSYM    DATA     BYTE      PWM3C0H
      000000BBH   SFRSYM    DATA     BYTE      PWM2C1H
      000000F3H   SFRSYM    DATA     BYTE      SPI0CR1
      000000D5H   SFRSYM    DATA     BYTE      PWM0C3H
      000000F9H   SFRSYM    DATA     BYTE      SPI1CR0
      000000A7H   SFRSYM    DATA     BYTE      IAPAH
      00000098H.4 SFRSYM    DATA     BIT       REN
      000000F9H   SFRSYM    DATA     BYTE      LCDCON0
      000000CBH   SFRSYM    DATA     BYTE      PWM3C1H
      000000DAH   SFRSYM    DATA     BYTE      PWM0C0L
      000000C4H   SFRSYM    DATA     BYTE      PWM0C4H
      000000FAH   SFRSYM    DATA     BYTE      SPI1CR1
      000000F8H   SFRSYM    DATA     BYTE      S1CON
      000000AEH   SFRSYM    DATA     BYTE      IAPFD
      000000F4H   SFRSYM    DATA     BYTE      LCDCON1
      0000009AH   SFRSYM    DATA     BYTE      PWM1C0L
      000000E1H   SFRSYM    DATA     BYTE      CAPCON0
      000000DBH   SFRSYM    DATA     BYTE      PWM0C1L
      000000C5H   SFRSYM    DATA     BYTE      PWM0C5H
      000000C2H   SFRSYM    DATA     BYTE      PWM2C0L
      0000009BH   SFRSYM    DATA     BYTE      PWM1C1L
      000000E2H   SFRSYM    DATA     BYTE      CAPCON1
      000000DCH   SFRSYM    DATA     BYTE      PWM0C2L
      000000C9H   SFRSYM    DATA     BYTE      T2MOD
      000000C8H   SFRSYM    DATA     BYTE      T2CON
LX51 LINKER/LOCATER V4.66.97.0                                                        10/05/2022  15:23:47  PAGE 41


      000000C2H   SFRSYM    DATA     BYTE      ADCRL
      000000A3H   SFRSYM    DATA     BYTE      BODCON0
      000000B5H   SFRSYM    DATA     BYTE      RTCCALMDAY
      000000D2H   SFRSYM    DATA     BYTE      PWM3C0L
      000000C3H   SFRSYM    DATA     BYTE      PWM2C1L
      000000E3H   SFRSYM    DATA     BYTE      CAPCON2
      000000DDH   SFRSYM    DATA     BYTE      PWM0C3L
      000000D2H   SFRSYM    DATA     BYTE      ACMPCR0
      000000C4H   SFRSYM    DATA     BYTE      T3CON
      000000ABH   SFRSYM    DATA     BYTE      BODCON1
      000000A6H   SFRSYM    DATA     BYTE      IAPAL
      000000D3H   SFRSYM    DATA     BYTE      PWM3C1L
      000000CCH   SFRSYM    DATA     BYTE      PWM0C4L
      00000084H   SFRSYM    DATA     BYTE      LIRCTRIM
      000000D3H   SFRSYM    DATA     BYTE      ACMPCR1
      00000094H   SFRSYM    DATA     BYTE      DMA0CNT
      000000A6H   SFRSYM    DATA     BYTE      RTCINTEN
      000000CDH   SFRSYM    DATA     BYTE      PWM0C5L
      000000ABH   SFRSYM    DATA     BYTE      ACMPCR2
      000000EDH   SFRSYM    DATA     BYTE      DMA1CNT
      000000E5H   SFRSYM    DATA     BYTE      ADCSN
      000000B5H   SFRSYM    DATA     BYTE      DMA2CNT
      000000BEH   SFRSYM    DATA     BYTE      RTCTAMSK
      000000ADH   SFRSYM    DATA     BYTE      DMA3CNT
      000000B9H   SFRSYM    DATA     BYTE      SADEN
      000000AFH   SFRSYM    DATA     BYTE      IAPCN
      000000A1H   SFRSYM    DATA     BYTE      PIPS0
      000000AFH   SFRSYM    DATA     BYTE      RTCCALYEAR
      000000A2H   SFRSYM    DATA     BYTE      PIPS1
      000000E7H   SFRSYM    DATA     BYTE      ADCSR
      000000A3H   SFRSYM    DATA     BYTE      PIPS2
      000000A9H   SFRSYM    DATA     BYTE      SADDR
      0000008EH   SFRSYM    DATA     BYTE      CKCON
      000000FDH   SFRSYM    DATA     BYTE      LVRFLTEN
      000000A4H   SFRSYM    DATA     BYTE      PIPS3
      000000A5H   SFRSYM    DATA     BYTE      PIPS4
      000000EAH   SFRSYM    DATA     BYTE      MTM0DAL
      000000A2H   SFRSYM    DATA     BYTE      AUXR0
      000000D7H   SFRSYM    DATA     BYTE      PWM0FBD
      000000C9H   SFRSYM    DATA     BYTE      AUXR1
      000000C1H   SFRSYM    DATA     BYTE      CKDIV
      000000A6H   SFRSYM    DATA     BYTE      PIPS5
      000000F2H   SFRSYM    DATA     BYTE      MTM1DAL
      000000B7H   SFRSYM    DATA     BYTE      MTM2DAL
      000000A7H   SFRSYM    DATA     BYTE      PIPS6
      000000CFH   SFRSYM    DATA     BYTE      AUXR3
      000000B6H   SFRSYM    DATA     BYTE      RTCCALMMON
      000000AFH   SFRSYM    DATA     BYTE      MTM3DAL
      000000AFH   SFRSYM    DATA     BYTE      PIPS7
      000000D0H.5 SFRSYM    DATA     BIT       F0
      000000F9H   SFRSYM    DATA     BYTE      P0MF10
      000000F8H.4 SFRSYM    DATA     BIT       REN_1
      000000B1H   SFRSYM    DATA     BYTE      RTCTALMSEC
      000000FDH   SFRSYM    DATA     BYTE      P1MF10
      000000BBH   SFRSYM    DATA     BYTE      RTCWEEKDAY
      000000A9H   SFRSYM    DATA     BYTE      RTCTIMESEC
      000000F2H   SFRSYM    DATA     BYTE      P2MF10
      0000009DH   SFRSYM    DATA     BYTE      RSR
      000000F6H   SFRSYM    DATA     BYTE      P3MF10
      000000FAH   SFRSYM    DATA     BYTE      P0MF32
      000000EBH   SFRSYM    DATA     BYTE      P4MF10
      000000FFH   SFRSYM    DATA     BYTE      LCDMODE
      000000FEH   SFRSYM    DATA     BYTE      P1MF32
      000000EFH   SFRSYM    DATA     BYTE      P5MF10
      000000E9H   SFRSYM    DATA     BYTE      PICON
LX51 LINKER/LOCATER V4.66.97.0                                                        10/05/2022  15:23:47  PAGE 42


      000000D0H   SFRSYM    DATA     BYTE      PSW
      000000F3H   SFRSYM    DATA     BYTE      P2MF32
      00000092H   SFRSYM    DATA     BYTE      P6MF10
      000000EAH   SFRSYM    DATA     BYTE      PINEN
      000000F7H   SFRSYM    DATA     BYTE      P3MF32
      000000AAH   SFRSYM    DATA     BYTE      WDCON
      000000FBH   SFRSYM    DATA     BYTE      P0MF54
      000000ECH   SFRSYM    DATA     BYTE      P4MF32
      000000EBH   SFRSYM    DATA     BYTE      PIPEN
      000000E9H   SFRSYM    DATA     BYTE      DMA0TSR
      000000DBH   SFRSYM    DATA     BYTE      SC0ETURD0

      01000280H   BLOCK     CODE     ---       LVL=0
      00000008H   SYMBOL    DATA     BYTE      u8Port
      00000001H   SYMBOL    DATA     BYTE      u8PinMask
      00000003H   SYMBOL    DATA     BYTE      u8Mode
      01000284H   BLOCK     CODE     NEAR LAB  LVL=1
      00000004H   SYMBOL    DATA     BYTE      u8PnM1
      00000006H   SYMBOL    DATA     BYTE      u8PnM2
      ---         BLOCKEND  ---      ---       LVL=1
      01000280H   LINE      CODE     ---       #40
      01000284H   LINE      CODE     ---       #41
      01000284H   LINE      CODE     ---       #44
      01000287H   LINE      CODE     ---       #45
      010002AAH   LINE      CODE     ---       #46
      010002AAH   LINE      CODE     ---       #47
      010002B0H   LINE      CODE     ---       #48
      010002B6H   LINE      CODE     ---       #49
      010002BCH   LINE      CODE     ---       #50
      010002C2H   LINE      CODE     ---       #51
      010002C8H   LINE      CODE     ---       #52
      010002CEH   LINE      CODE     ---       #53
      010002D5H   LINE      CODE     ---       #54
      010002D5H   LINE      CODE     ---       #55
      010002E3H   LINE      CODE     ---       #56
      010002E3H   LINE      CODE     ---       #57
      010002E3H   LINE      CODE     ---       #58
      010002E7H   LINE      CODE     ---       #59
      010002EBH   LINE      CODE     ---       #60
      010002EDH   LINE      CODE     ---       #61
      010002EDH   LINE      CODE     ---       #62
      010002F1H   LINE      CODE     ---       #63
      010002F4H   LINE      CODE     ---       #64
      010002F6H   LINE      CODE     ---       #65
      010002F6H   LINE      CODE     ---       #66
      010002F9H   LINE      CODE     ---       #67
      010002FDH   LINE      CODE     ---       #68
      010002FFH   LINE      CODE     ---       #69
      010002FFH   LINE      CODE     ---       #70
      01000302H   LINE      CODE     ---       #71
      01000305H   LINE      CODE     ---       #72
      01000305H   LINE      CODE     ---       #73
      01000305H   LINE      CODE     ---       #74
      01000328H   LINE      CODE     ---       #75
      01000328H   LINE      CODE     ---       #76
      0100032DH   LINE      CODE     ---       #77
      01000332H   LINE      CODE     ---       #78
      01000337H   LINE      CODE     ---       #79
      0100033CH   LINE      CODE     ---       #80
      01000341H   LINE      CODE     ---       #81
      01000346H   LINE      CODE     ---       #82
      0100034DH   LINE      CODE     ---       #83
      0100034DH   LINE      CODE     ---       #84
      ---         BLOCKEND  ---      ---       LVL=0
      00000007H   SYMBOL    DATA     BYTE      u8Port
LX51 LINKER/LOCATER V4.66.97.0                                                        10/05/2022  15:23:47  PAGE 43


      00000005H   SYMBOL    DATA     BYTE      u8PinMask
      00000003H   SYMBOL    DATA     BYTE      u8PullMode
      00000007H   SYMBOL    DATA     BYTE      u8Port
      00000005H   SYMBOL    DATA     BYTE      u8PinMask
      00000003H   SYMBOL    DATA     BYTE      u8PullMode
      00000007H   SYMBOL    DATA     BYTE      u8Port
      00000005H   SYMBOL    DATA     BYTE      u8PinMask
      00000003H   SYMBOL    DATA     BYTE      u8SStauts
      00000007H   SYMBOL    DATA     BYTE      u8Port
      00000005H   SYMBOL    DATA     BYTE      u8PinMask
      00000003H   SYMBOL    DATA     BYTE      u8SRStauts

      ---         MODULE    ---      ---       ?C_STARTUP
      01000000H   PUBLIC    CODE     ---       ?C_STARTUP

      ---         MODULE    ---      ---       ?C?LMUL
      01000003H   PUBLIC    CODE     ---       ?C?LMUL

      ---         MODULE    ---      ---       ?C?ULDIV
      0100008EH   PUBLIC    CODE     ---       ?C?ULDIV

      ---         MODULE    ---      ---       ?C?ULSHR
      01000120H   PUBLIC    CODE     ---       ?C?ULSHR

      ---         MODULE    ---      ---       ?C?ICASE
      01000133H   PUBLIC    CODE     ---       ?C?ICASE

Program Size: data=25.1 xdata=0 const=0 code=1000
LX51 RUN COMPLETE.  0 WARNING(S),  0 ERROR(S)
